(dp1
I40139016
VDavidBowieReal
p2
sI15340816
Vjamiecullum
p3
sI114824339
Vaqualungmusic
p4
sI37085464
VLA_Sparks
p5
sI24234523
VNewtonFaulkner
p6
sI35534621
VHowieKDay
p7
sI19018401
Vjason_mraz
p8
sI6206882
VKTTunstall
p9
sI20121123
VDanMerriweather
p10
sI283486449
VStranglersSite
p11
sI124631720
VBillyIdol
p12
sI163730859
VJackJackJohnson
p13
sI224995885
VJamesMorrisonOK
p14
sI16033565
Vamoslee
p15
sI18753846
VDamienRice
p16
sI23433022
VDavidGray
p17
sI52437361
VBlondieOfficial
p18
sI298043472
VTheKinks
p19
sI42690723
VLouReed
p20
sI18937428
VPaoloNutini
p21
sI184910040
VOfficialAdele
p22
sI98765275
VQueenWillRock
p23
sI82097756
VJamesBlunt
p24
sI17781981
Vjoshuaradin
p25
sI176449552
Vbryanferry
p26
sI403991138
VIggyPop
p27
sI18863720
Vkeaneofficial
p28
sI30938602
VBenHarper
p29
sI558109036
Vgeorge_ezra
p30
sI20117923
VElvisCostello
p31
sI126000232
VRayLaMontagne
p32
sI335534204
VJohnMayer
p33
sI107544554
Vitspetergabriel
p34
s.