(dp1
VHowieKDay
p2
VNew York, NY
p3
sVJamesMorrisonOK
p4
VLondon
p5
sVJackJackJohnson
p6
V402-LA
p7
sVbryanferry
p8
VLondon, UK
p9
sVBlondieOfficial
p10
V
sVaqualungmusic
p11
VLos Angeles
p12
sVitspetergabriel
p13
VThe Wild West of England
p14
sVDanMerriweather
p15
VMelbourne, Australia.
p16
sVLouReed
p17
VNew York, NY 
p18
sVStranglersSite
p19
VLondon
p20
sVRayLaMontagne
p21
V
sVPaoloNutini
p22
VScotland
p23
sVQueenWillRock
p24
VUK
p25
sVamoslee
p26
VPhiladelphia PA
p27
sVDavidBowieReal
p28
V
sVDavidGray
p29
VSale, UK
p30
sVjoshuaradin
p31
Vlos angeles, i guess
p32
sVKTTunstall
p33
V
sVOfficialAdele
p34
VLondon/NYC
p35
sVLA_Sparks
p36
VLos Angeles, CA
p37
sVBillyIdol
p38
VWorldwide
p39
sVNewtonFaulkner
p40
VThe Far East (of london)
p41
sVTheKinks
p42
V
sVJohnMayer
p43
V
sVElvisCostello
p44
VLondon, UK
p45
sVjason_mraz
p46
VSan Diego, CA
p47
sVgeorge_ezra
p48
V
sVJamesBlunt
p49
VLondon
p50
sVDamienRice
p51
Vdublin, ireland
p52
sVkeaneofficial
p53
Veverywhere
p54
sVIggyPop
p55
VUSA
p56
sVjamiecullum
p57
VLondon
p58
sVBenHarper
p59
V
s.