(dp1
VHowieKDay
p2
(lp3
S'RT @thehotelcafe: Join us for night one of @howiekday tonight at 9:30pm. Grab your tickets at http://t.co/G3z7LH9VCF http://t.co/voLBO7Mkom'
p4
aS'Thank you @wrhotelrestspa for the magnificent show and setting yesterday! Off to the LA now...'
p5
aS'#Lodi #Lantern @ Wine &amp; Roses https://t.co/rsUNwLlx5S'
p6
aS'Oh, hello west coast. Pretty town you got here. Name reminds me of "Hill Valley" from Back to the\xe2\x80\xa6 https://t.co/mylmzDPsmd'
p7
aS'RT @thehotelcafe: .@HowieKDay is back this weekend on 8/29 and 8/30! Grab your tickets before the shows sell out at http://t.co/DCef6F7B04'
p8
aS'The following statement sounds like it has a deeper, more nefarious meaning... "Anyone up for a game\xe2\x80\xa6 https://t.co/KDEHdqgmYM'
p9
aS"There's still time in case YOU COMPLETELY MISSED THE BOAT (which would be understandable in NOLA, lots goin' on...) https://t.co/Y8hkwMSNTD"
p10
aS'@kayLYONESS Happy Birthday!!!'
p11
aS'@callitnatural busted!'
p12
aS'Only a few tickets left for @CityWineryNSH show in Nashville tomorrow night! See you there?!'
p13
aS"RT @eddiesattic: .@HowieKDay returns for night 2 on our stage TONIGHT! Get your tix before they're gone. Tickets:  http://t.co/qwBYchZYLI"
p14
aS"RT @eddiesattic: .@HowieKDay returns for night 2 on our stage TOMORROW! Get your tix before they're gone. Tickets:  http://t.co/qwBYchZYLI"
p15
aS"RT @eddiesattic: Looking forward to seeing you at @howiekday tonight! http://t.co/YOJ4nvX8Pp Who's coming to see him again tomorrow!? http:\xe2\x80\xa6"
p16
aS'@NickDonnelly_ Thanks! Glasgow may or may not be in the works...'
p17
aS'RT @eddiesattic: Looking forward to @howiekday tomorrow! 8/12 http://t.co/YOJ4nvX8Pp &amp; the next day! 8/13 http://t.co/qwBYcihzDg'
p18
aS'RT @themagicbag: Tonight at the Bag: Howie Day @HowieKDay with Olivia Millerschin @OMillerschin - Doors 8pm - $20 - Are you ready? http://t\xe2\x80\xa6'
p19
aS'Wow. \xf0\x9f\x98\xb1 https://t.co/2QWwNo0Azf'
p20
aS'RT @themagicbag: Only 1 more day until @HowieKDay and @OMillerschin rock the Bag! Have you picked up your tix? http://t.co/CIBpKsdhwX http:\xe2\x80\xa6'
p21
aS'RT @eddiesattic: Tickets: @HowieKDay - August 12: http://t.co/YOJ4nvFxXR August 13: http://t.co/qwBYchZYLI #atl #collide #lanterns'
p22
aS'Ready for night 2 Chicago? @CityWineryCHI #lanterns #treeshirts #wine #tour'
p23
asVJamesMorrisonOK
p24
(lp25
S'Not long to go\xe2\x80\xa6 London are you excited too?? \xf0\x9f\x98\x81 http://t.co/j5FdLf2eRj'
p26
aS'Soundcheck at The Tabernacle!! http://t.co/qnals0ZxGi'
p27
aS'It\xe2\x80\x99s all about the gospel \xf0\x9f\x8e\xa4\xf0\x9f\x8e\xb5 http://t.co/5NSkyTH0FC\nhttps://t.co/qTBUXeEuNY'
p28
aS'A beautiful day in Berlin \xf0\x9f\x98\x8e http://t.co/9skwDtmIqC'
p29
aS'You won\xe2\x80\x99t have much longer to wait for something new\xe2\x80\xa6'
p30
aS'Four years ago today I released I Won\xe2\x80\x99t Let You Go\xe2\x80\xa6 a big thank you for your continued support. http://t.co/VmFKEOnkp1'
p31
aS'Guess where I am??? http://t.co/O7hhAouHgF'
p32
aS"I recorded #HigherThanHere at the Pool studios during the album sessions... this is a taste of what's to come http://t.co/7Hp8H9oQ4S"
p33
aS"Backstage at Wilton's \xf0\x9f\x8e\xb8 http://t.co/QflHbfB3Bu"
p34
aS'2 down, 1 to go! London thanks once again, you beautiful people!! http://t.co/vYUOeBUg1O'
p35
aS'Get uplifted with Higher Than Here, a little taster from my new album http://t.co/5NSkyTYC4c Enjoy x http://t.co/BIFaV50IgC'
p36
aS"It's been ages since I shared new music with you..."
p37
aS"Got this setlist to give away from last week's Wilton's show here: http://t.co/rDwa6f9WxK Notice any new additions?\xf0\x9f\x98\x89\xf0\x9f\x8e\xb6 http://t.co/zT4izP5WG4"
p38
aS'#flashbackFriday supporting the great Stevie Wonder in Hyde Park. Personal highlight #JMemories http://t.co/j2pgZ5RsGg'
p39
aS'#tbt This is one of my fave performances &amp; my first standing ovation. 2007 @RoyalAlbertHall for @PeaceOneDay. Wicked https://t.co/A7SdG2sah8'
p40
aS'Thank you to everyone who came to my first show @WiltonMusicHall last night! \nFu\xf0\x9f\x98\xb5\xf0\x9f\x98\xb5ing loved it, so good to be back \xf0\x9f\x91\x8d http://t.co/Y6nraPdQ3B'
p41
aS'Just been sent the most amazing video by some fans! Thanks for the birthday wishes everyone http://t.co/YQFS57erpe'
p42
aS'Thanks to everyone who entered the ticket competition, a winner has now been contacted. See you there!!'
p43
aS'Just over a week to go until the show at Wilton\xe2\x80\x99s in London! http://t.co/CyGOie0CTe'
p44
aS'Win tickets for my special London show on Tue 18 Aug (plus the winner gets to come &amp; say hi!) http://t.co/a8Ca7Q9Jfy http://t.co/QgxqSNwVWJ'
p45
asVJackJackJohnson
p46
(lp47
S"I'll be so awkward at times but then others I'll be smooth as hell I just don't get it I feel like God is messing with me for his amusement"
p48
aS'RT @JACKSHYPHY: Johnson in his natural habitat http://t.co/PrqOdlUEZW'
p49
aS'You as well babe!  https://t.co/o3Fh5O87ph'
p50
aS'Then I highly recommend you come to one of our new shows when you get the chance \xf0\x9f\x98\x8f https://t.co/B7cHHgoSys'
p51
aS'Thank you beth you are truly a babe https://t.co/bOSWvIg86s'
p52
aS'Passion is attractive'
p53
aS"Of course not! Just as in we can't really work on much new content while we are on the road but once we get back \xf0\x9f\x91\x8a\xf0\x9f\x8f\xbc https://t.co/Lq02BSq1XD"
p54
aS'My uber driver just got out of his car and actually started fist fighting a biker who he cut off. 5 star rating for entertainment purposes.'
p55
aS"Headed to Texas tomorrow won't have free time til we get back from NYC!  https://t.co/1zIEWFSyJC"
p56
aS'Last day of rehearsals going good \xf0\x9f\x98\x85 http://t.co/JxYL3Y3B3z'
p57
aS'Yeah of course \xf0\x9f\x98\x8f https://t.co/ARKx1GcRqF'
p58
aS'If your ever having an internal conflict, go with your gut feeling. More often than not that is the right choice.'
p59
aS'\xf0\x9f\x91\x8b\xf0\x9f\x8f\xbd https://t.co/0hRmMVrcSW'
p60
aS'I make myself laugh HAHAHAHAHAHAHAHAHAHA'
p61
aS"Johnsons tip of the day: Master the foot cross and you can trick anybody into thinking you're adorable. It's proven. http://t.co/1lYV1Ow3g6"
p62
aS"Guys we are nominated for another award! You're votes would obviously mean the world to us \xe2\x9d\xa4\xef\xb8\x8f so awesome \xf0\x9f\x98\xad\xf0\x9f\x98\xad thank you"
p63
aS'RT @JackAndJackReal: Thank you sooooo much @streamys for nominating us for entertainer of the year! Thanks to anyone who votes for us \xf0\x9f\x98\x8b'
p64
aS'Sorry for talking about myself in third person guys I apologize'
p65
aS"Wow this is the latest I've slept in so long. I feel like a bum wtf 1:30? Jeez Johnson set your alarm"
p66
aS'RT @jacksmeup: Jack and Jack have been nominated  #Streamys Entertainer of the Year nomination! Vote for them NOW \xf0\x9f\x91\x8f http://t.co/v8AEHMLjGH'
p67
asVbryanferry
p68
(lp69
S'http://t.co/Aqx3MoNX8o'
p70
aS'\xe2\x80\x9cAs it was in the beginning, before the darkness and the fall\xe2\x80\xa6..\xe2\x80\x9d \nThe Avonmore Tour restarts next week\xe2\x80\xa6. http://t.co/s9MaAAls0B'
p71
aS'#fbf BF playing guitar! Can you name the (re)make and model? #FlashbackFriday http://t.co/HYyFWSvSHN'
p72
aS'#tbt BF having tea with Salvador Dali! #ThrowbackThursday http://t.co/73IB2WXOUP'
p73
aS'Following the recent postponement of UK shows, Bryan Ferry is delighted to announce the rescheduling of the... http://t.co/lTjEXpGC6t'
p74
aS'BF and band post meeting regarding rescheduling shows (photo c/o Carlotta Michel)..... http://t.co/3HQW48FnCe'
p75
aS'"Now The Party\'s Over"......for now....Celebrating the amazing band of Paul Beard, Jorja Chalmers, Luke Bullen,... http://t.co/Fit1NLpH7s'
p76
aS'London 6th June 2015 \xe2\x80\x93\nFollowing medical assessment this afternoon, Bryan Ferry\xe2\x80\x99s shows in Poole (7th June) and... http://t.co/fWA0RlbNU8'
p77
aS'"Don\'t miss me when I fall\nYou Know I Want To Be With You"'
p78
aS'The mood of this striking photo aptly sums up how we all feel tonight as the BF tour is paused....our thoughts... http://t.co/EX93bqCbUF'
p79
aS'https://t.co/fnO0QSODCT'
p80
aS'London 3rd June 2015 \xe2\x80\x93\n\nFollowing further medical assessment yesterday and today, Bryan Ferry\xe2\x80\x99s shows in Brighton... http://t.co/eJ6FBUc5i6'
p81
aS"I added a video to a @YouTube playlist http://t.co/CEK63nZgq7 Bryan Ferry - Can't Let Go - Live at Glastonbury 2014"
p82
aS'I added a video to a @YouTube playlist http://t.co/bBlnviUWEA Bryan Ferry - Johnny &amp; Mary [Official Video]'
p83
aS"https://t.co/Jh5ZjOondd\nThe 'Johnny &amp; Mary' video is now live on Youtube! http://t.co/ncmec4hRMg"
p84
aS'Blackpool... http://t.co/gnR0eAIyow'
p85
aS"Now the party's over...Thank you Glasgow http://t.co/NNRWPuWRSG"
p86
aS'Watch the video for Johnny and Mary now on:\nhttps://t.co/u77va3PUsb \nNOWNESS http://t.co/eFoNesnuC1'
p87
aS"Video Premiere of 'Johnny and Mary' tomorrow on http://t.co/bDjjSa6351\nNOWNESS http://t.co/MnmOCSk6d2"
p88
aS'From Sheffield last night http://t.co/nShCOkp6sc'
p89
asVBlondieOfficial
p90
(lp91
S'DEVO, BLONDIE, TALKING HEADS, KLAUS NOMI ON \xe2\x80\x9820/20\xe2\x80\x99 SEGMENT ON NEW WAVE, 1979.\nhttp://t.co/NTsMEGWGcE'
p92
aS'BLONDIE merch Back-2-School Sale! SAVE $ on: Tour Tees, Viewfinder, 2 LP Pic Disc Set + more! http://t.co/DFeIzBjktr http://t.co/dh2PqioxRt'
p93
aS'36 years ago; The September 1979 issue of Trouser Press magazine featured BLONDIE on cover, plus a 7 page article. http://t.co/Qc4flgqdjY'
p94
aS'New in our Memorabilia Gallery @ http://t.co/f8uSh0BJzf: Blondie/Pat Benatar split CD "Back To Back Hits" series \'96. http://t.co/ypAOK9ASUJ'
p95
aS'A BLONDIE fan posts a Kickstarter project to create a ltd. ed. bronze idol of Debbie Harry! ONLY 7 DAYS TO GO!\nhttps://t.co/4i8BbupmTc'
p96
aS'New image in our Memorabilia Gallery at http://t.co/f8uSh0BJzf: "Eat To The Beat" album on 8-Track Tape circa 1979. http://t.co/JqBtpUEndE'
p97
aS'BLONDIE merch Back-2-School Sale! SAVE $ on: Tour Tees, Viewfinder, 2 LP Pic Disc Set + more! http://t.co/DFeIzBjktr http://t.co/qoLxt4QP1v'
p98
aS'Get your BLONDIE Short &amp; Sweet 2015 Tour T-Shirt now! Limited stock! Ruby Rose wears hers. http://t.co/LHDDit0OlJ http://t.co/o8yqDGyv5L'
p99
aS'Sign up on our Official BLONDIE Mailing List to be kept up to date on our plans in 2015. http://t.co/l4g7UEmTSM'
p100
aS"BLONDIE Short &amp; Sweet 2015 Tour Tees available now! Here's Ruby Rose wearing hers. http://t.co/LHDDit0OlJ http://t.co/lBWKsmRdXc"
p101
aS'Featured photo at http://t.co/f8uSh0BJzf: Debbie at Glastonbury 2014. Photo by Jill Furmanovsky.  http://t.co/mBGlPu98Es'
p102
aS'BLONDIE Short &amp; Sweet 2015 Tour Tees Available Now! See Ruby Rose wearing hers. http://t.co/LHDDit0OlJ http://t.co/MtNRwWdLHF'
p103
aS"Sign up on our official BLONDIE Mailing List to be kept up-to-date on what we'll be doing in the near future. http://t.co/l4g7UEmTSM"
p104
aS'Featured image at http://t.co/f8uSh0BJzf: Press photo of band circa 1978. http://t.co/JPC0DD4xaY'
p105
aS'Blondie fan posts a Kickstarter project to create ltd edition bronze idol of Debbie Harry, sanctioned by Blondie! https://t.co/QRQlboqP0e'
p106
aS'Check out our Photo Galleries, get the latest Blondie News, &amp; sign up on our Official Blondie Mailing list at http://t.co/f8uSh0BJzf.'
p107
aS"If u haven't seen enough of Clem on the recent Blondie tour u can see him on this mini SoCal tour w/ @TheIntSwingers. http://t.co/qC3BdQFKNh"
p108
aS'A review of our July 26th show at The Greek in Los Angeles. http://t.co/pg74Qe8Jcs'
p109
aS'33 years ago in July 1982, BLONDIE\xe2\x80\x99s \xe2\x80\x9cWar Child\xe2\x80\x9d single was released. http://t.co/udiCfqnYAA'
p110
aS"Pick Up Our Blondie Summer Bundle for a sizzlin' $75 deal now through August 7th. Includes Shirt, Hat, and Tote! http://t.co/4BwK3qqTFx"
p111
asVaqualungmusic
p112
(lp113
S'My dear friend &amp; wondrous artist @liannelahavas released her 2nd album #Blood this past week. I urge you to get it! http://t.co/jzCfzSK2dZ'
p114
aS'A new missive from Matt https://t.co/iDZJiVmddk'
p115
aS'#10Futures - A Track by Track by Matt. http://t.co/2JFpR28ZQp http://t.co/4Kc9LdYhuN'
p116
aS"Aqualung HQ: Matt co-wrote &amp; produced @4kingandcountry's latest album which just won the #Grammy for #BestContemporaryChristianMusicAlbum!"
p117
aS"If you'd like to know more about 10 Futures, @clash_music have a track-by-track guide of each song on the album: http://t.co/AGNDtlchQN"
p118
aS'10 Futures out now on iTunes http://t.co/oAKIxjAEYa Amazon http://t.co/GeCuDj5eMS Spotify http://t.co/fGvNpASkFh &amp; all retailers in the EU'
p119
aS'RT @thefader: Premiere: Watch the video for @aqualungmusic\xe2\x80\x99s \xe2\x80\x9cEggshells\xe2\x80\x9d (co-produced by @disclosure). http://t.co/LVZewn2981 http://t.co/n\xe2\x80\xa6'
p120
aS'Hi. Hello. Hi. So, The Internet tells me that I am releasing a new album in a few weeks! http://t.co/xB1CgMHvP5'
p121
aS'Number 1 on @SpotifyUK Viral Chart -THANK YOU! http://t.co/KAgingeEgv'
p122
aS'Thanks to @zanelowe for premiering my new single - this is Eggshells featuring @liannelahavas: https://t.co/GpN9Dqk0bf'
p123
aS'Tune in to @zanelowe on @BBCR1 tonight for the premiere of my new single Eggshells, featuring @liannelahavas'
p124
aS'Please enjoy my new video, made by Matt Saunders and some scissors, on @NYLONMag. I am not in it. OR AM I? http://t.co/bsYRa6blSF'
p125
aS'RT @zanelowe: Now @aqualungmusic featuring @JoelCompass #goodmusic http://t.co/AJTvCUcfxA'
p126
aS'I, Mr A. Lung am releasing a new single. It is called Tape2Tape and it features @JoelCompass on the singing: http://t.co/IugyzFYKvy'
p127
aS"Aqualung HQ: Matt co-wrote, produced &amp; performed on @4kingandcountry's \nnew album #RunWildLiveFreeLoveStrong http://t.co/2Br0gBtCrv"
p128
aS'Aqualung HQ: "Take On Me" is now on @Spotify! http://t.co/GleTEgD76R | http://t.co/cBBx9TNHFA'
p129
aS"RT @aha_com: Magne's opinion of @aqualungmusic's cover of 'Take On Me', which was in the @greysanatomy season finale last week - http://t.c\xe2\x80\xa6"
p130
aS"RT @Shazam: The @GreysABC #GreysFinale was #Shazamed over 14,000 times! You were loving the @aqualungmusic cover of 'Take On Me' http://t.c\xe2\x80\xa6"
p131
aS'Aqualung HQ: The free download of "Take on Me" is back up and running, go grab it! http://t.co/ubFZOzR5PI'
p132
aS'Aqualung HQ: @aqualungmusic\'s cover of "Take on Me" is now available as a free download on @SoundCloud! Get it here http://t.co/ubFZOzR5PI'
p133
asVitspetergabriel
p134
(lp135
S'RT @festival_awards: SPECIAL ANNOUNCEMENT! And the Outstanding Contribution to Festivals Award goes to ...........http://t.co/yevEzcFZON+ h\xe2\x80\xa6'
p136
aS"RT @RealWorldRec: ICYMI: @BBC6Music's 'Sounds of a City' on Edinburgh and the music of Martyn Bennett @cuillinmusic in particular http://t.\xe2\x80\xa6"
p137
aS'RT @RealWorldStudio: Take a look around the studio complex with our 360-degree Google Maps tour http://t.co/KFK4e6Dee7 http://t.co/5JeUc7tq\xe2\x80\xa6'
p138
aS'RT @Toolbx: Check out our #WWWeek toolkit featuring @givemetap @DETwaterproject @GiveClearWater and more! http://t.co/HbAZaPi4cS #water #wa\xe2\x80\xa6'
p139
aS'Nice piece on the forthcoming LP re-issues here: http://t.co/9jr8lz9Hlx'
p140
aS"Aug release on @BowersWilkins is out now and it's @TheLakePoets debut album! They also have a video premiere. All at: http://t.co/F7VsFdFYZf"
p141
aS'RT @JMetcalfeBand: Very happy to say we have an Autumn show at @KingsPlace on Saturday 26th September. Best PA in town.... http://t.co/g39q\xe2\x80\xa6'
p142
aS'Please take a look. More info here too: http://t.co/4gtIeECmug https://t.co/1wZImxXPwQ'
p143
aS"Watch https://t.co/9ZlVycL0TC ...a great taste of last weekend's @BowersWilkins #soundsystem at @WOMADCHARLTONPK  from @mindthefilm"
p144
aS'RT @MOJOmagazine: Listen To Peter Gabriel\xe2\x80\x99s (@itspetergabriel) Games Without Frontiers In German! \nhttp://t.co/igzP2H8ijw http://t.co/BBRht\xe2\x80\xa6'
p145
aS'RT @RealWorldRec: .@TotoMomposina makes an emotional return @WOMADCHARLTONPK this w/end. Read the story of her history at the festival http\xe2\x80\xa6'
p146
aS'RT @TheElders: Today is #MandelaDay. Find out how &amp; why people worldwide are giving time to help others http://t.co/9j2EcjIodS http://t.co/\xe2\x80\xa6'
p147
aS'RT @colernemwc: A photo from our recording @itspetergabriel studios this week http://t.co/zZLpxJN6zW'
p148
aS'RT @WOMADFoundation: A copy of tSo anniversary box signed by @itspetergabriel one of the prizes @WOMADFoundation @WOMADCHARLTONPK  raffle. \xe2\x80\xa6'
p149
aS'RT @AmnestySverige: Bono &amp; Edge of @u2 @johnlegend @itspetergabriel @OfficialSting &amp; @yokoono fund Nelson #Mandela memorial tapestry http:/\xe2\x80\xa6'
p150
aS'RT @WOMADFoundation: Great prizes for the @WOMADFoundation raffle @WOMADCHARLTONPK. Thank you @itspetergabriel for the signed artwork and b\xe2\x80\xa6'
p151
aS'For anyone in London next week... https://t.co/aUVQBUXCqX'
p152
aS'Peter is supporting this initiative from #AnimationShowOfShows supporting film makers gain exposure. Take a look\nhttps://t.co/Y4sgToOAIf'
p153
aS"RT @RealWorldRec: Powerful, never-seen-before, footage of @TotoMomposina recording 'La Candela Viva' @RealWorldStudio in 1991: http://t.co/\xe2\x80\xa6"
p154
aS'Read more about @WITNESS_Lab here: http://t.co/sDocMZcSRA http://t.co/XoIShlQ8pl'
p155
asVDanMerriweather
p156
(lp157
S'Thanks for the hair cut Chris @HuckletheBarber http://t.co/DUgWI3FpKH'
p158
aS'...A psychiatrist is the man who collects the rent.\n- #JeromeLawrence'
p159
aS'...A psychotic is the man who lives in it...'
p160
aS'A neurotic is a man who builds a castle in the air...'
p161
aS'I walked and walked and just ended up here... http://t.co/qrYVYpfCu0'
p162
aS'Back in #London, feet on solid ground! http://t.co/eHHBjclImT'
p163
aS'@musicMIFF Thank you'
p164
aS'#AbuDhabi http://t.co/aOfSSSBZku'
p165
aS'Tomorrow, another rising sun \xf0\x9f\x99\x8f\xf0\x9f\x8f\xbc'
p166
aS'Writing.'
p167
aS'Dear in the headlights at #SuperSenseFest at @artscentremelb \xf0\x9f\x93\xb7 - #MattNeumann http://t.co/n2oiqKFc5s'
p168
aS'\xe2\x80\x9cDisobedience is the true foundation of liberty. The obedient must be slaves.\xe2\x80\x9d \n\xe2\x80\x95#HenryDavidThoreau #GoshaRubchinskiy http://t.co/mzRk6HIMaN'
p169
aS'"Sing the words not the notes" - @drh3'
p170
aS'#KingParrot right out the back window. http://t.co/aAFQDhbQgV'
p171
aS'@larypoppins soon, very soon.'
p172
aS"#Pantera tee's are so sick!\nnot to mention their songs... #GreatSouthernTrendkill"
p173
aS'#SuperSense #festival at @artscentremelb yesterday \xf0\x9f\x91\x8f\xf0\x9f\x8f\xbd\xf0\x9f\x91\x8f\xf0\x9f\x8f\xbd\xf0\x9f\x91\x8f\xf0\x9f\x8f\xbd'
p174
aS'\xe2\x80\x9cAnd the turtles, of course...all the turtles are free, as turtles and, maybe, all creatures should be.\xe2\x80\x9d \n\xe2\x80\x95 #DrSeuss'
p175
aS'Auto correct on the iPhone is a Freudian slip generator without a doubt.'
p176
aS'Water!'
p177
asVLouReed
p178
(lp179
S'RT @DavidBowieReal @IggyPop \xe2\x80\x9c@TheRealMickRock:  http://t.co/o0eu5mzqJl\xe2\x80\x9d'
p180
aS'RT \xe2\x80\x9c@DangerMindsBlog: Walter Cronkite introduces the Velvet Underground on national TV, 1965 http://t.co/u4Jj0a7rTy http://t.co/8MXvdOywwK\xe2\x80\x9d'
p181
aS'and hear some alternate takes from Ornette\'s session with Lou for "Guilty" from The Raven http://t.co/DSlxjMO0Vu'
p182
aS'RIP Ornette Coleman, one of Lou\'s all-time favs. Watch Lou discuss "Lonely Woman" here http://t.co/cCjqKBUdMz'
p183
aS"Goodbye Dave! Here's one of Lou's many appearances on the Late Show. Sweet Jane from 1994 http://t.co/6jVspxmUoy"
p184
aS'RT \xe2\x80\x9c@Peter_Max: Congrats @rock_hall inductees http://t.co/wctn3cjiNz\xe2\x80\x9d'
p185
aS'RT \xe2\x80\x9c@TheRealMickRock: So nice to see my photos of @LouReed at the @rock_hall during the performance of #Vicious! http://t.co/Nxhkyq9Gqf\xe2\x80\x9d'
p186
aS'@beck performing tonight @rock_hall for Lou induction. http://t.co/u3sp2X4Ftc'
p187
aS'RT @SonyLegacyRecs: "Lou\'s subjects were his royalty who he crowned without judgement." - Patti Smith on @LouReed #RockHall2015 http://t.co\xe2\x80\xa6'
p188
aS'Elvin Bishop delivering a fantastic speech on behalf of The Paul Butterfield Blues Band #RockHall2015'
p189
aS'If you guessed \xe2\x80\x9cfirst 5 minutes\xe2\x80\x9d for time of Dave Grohl\xe2\x80\x99s appearance at the HoF Ceremony, then congrats you\xe2\x80\x99ve won. #RockHall2015'
p190
aS'#FanArtFriday \xe2\x80\x9c@idiotsocietyart: @LouReed http://t.co/HSlfb1Avq5\xe2\x80\x9d'
p191
aS'Drones happening now at @NewYorkLiveArts http://t.co/Z4sLtXf9xB'
p192
aS'Laurie Anderson curated the 2015 Live Ideas Festival in NYC. It runs from 4/15-19. See the full schedule at http://t.co/Lih3ci02P9'
p193
aS'RT \xe2\x80\x9c@SonyLegacyRecs: Check out this vintage ad for @LouReed\xe2\x80\x99s \xe2\x80\x98Rock n Roll Animal.\xe2\x80\x99 http://t.co/OV3ZUPXayS\xe2\x80\x9d'
p194
aS"RT @TheRealMickRock: Mick Rock and Lou Reed, Blake's Hotel, London at 4am Spring 1974. One of many long nites together. https://t.co/Pkexfa\xe2\x80\xa6"
p195
aS'RT #FanArt \xe2\x80\x9c@miserablecitytv: @LouReed Happy Birthday Lou!\nmade by Dani Herrera http://t.co/P7GTpLqXKM\xe2\x80\x9d'
p196
aS"RT \xe2\x80\x9c@SonyLegacyRecs: @LouReed's 1978 'Street Hassle' poster. who had an uncredited appearance on the title track? http://t.co/l2CO38Vx3d\xe2\x80\x9d"
p197
aS"RT \xe2\x80\x9c@michaelazerrad: For @LouReed's birthday, here is a hilarious four-minute interview he did in 1974. https://t.co/uA6xwDoFjk\xe2\x80\x9d"
p198
aS"Happy birthday Lou! \nBorn March 2, 1942. \nHere's Lou in Amsterdam, March 1975.\nPhoto by Gijsbert Hanekroot. http://t.co/LOxBf4ob8I"
p199
asVStranglersSite
p200
(lp201
S'@SimonHbikes @JohnCheston @MCNnews keep us posted...'
p202
aS"RT @SimonHbikes: Bikes, beer &amp; basses: life on the road (in both senses) with the Stranglers. It's a good story. Pics by Chippy Wood http:/\xe2\x80\xa6"
p203
aS'RT @gary_everton: @StranglersSite \xc2\xa33.50 a ticket 33 years ago those were the days http://t.co/VoSJU7kU15'
p204
aS'Interview from Verviers gig http://t.co/8bfNB8DViX'
p205
aS'RT @NewsUKArchives: Born #OTD in 1938, drummer, Jet Black. Posing with The Stranglers and his iconic gas mask. #Punk @StranglersSite http:/\xe2\x80\xa6'
p206
aS'http://t.co/9apJgf5sfp'
p207
aS'Nice bit of TV promo for Aus tour this morning (from 2m30s) http://t.co/QphOY3oL3o'
p208
aS"The band play an Aussie tour April '16 visiting Sydney, Brisbane, Melbourne, Adelaide &amp; Perth-onsale Fri 28th. Info http://t.co/TINfWNmfPX"
p209
aS'Happy birthday to Jet Black, drummer, founder member &amp; elder statesman of The Stranglers... http://t.co/Rqt16GLIg5'
p210
aS'JJ featured in a new book Dr Martens-A History Of Rebellious Self-Expression out now @drmartens #STANDFORSOMETHING http://t.co/HDQpozlc46'
p211
aS'RT @elvisinthecloud: Gig Review - @StranglersSite @TheCopperRooms @TableScrapsBand - Coventry 15-7-15 - http://t.co/zT1U256n9n'
p212
aS'RT @elvisinthecloud: Guest Gig Review Stranglers Warwick Uni 15/8/15 @StranglersSite @TheCopperRooms - http://t.co/5WWDVXkm07'
p213
aS'RT @louderthanwar: .@StranglersSite display the quality of their craft at The Copper Rooms in Warwick.\nhttp://t.co/3t0H6wgsP6 http://t.co/F\xe2\x80\xa6'
p214
aS'RT @elvisinthecloud: Guest Gig Review - @StranglersSite @TyntesfieldNT - The Stranglers - Tyntesfield 14-8-15 - http://t.co/2TscmtINLb'
p215
aS'Belladrum footage has been uploaded on Youtube by some kind person here https://t.co/dZcKkyxu7f'
p216
aS"Repeat of Saturday's Belladrum highlights programme now on BBC iPlayer inc tracks from band's set &amp; JJ interview http://t.co/zAjvX8B9Xp"
p217
aS'RT @BarraAndCarly: Brilliant time @BelladrumFest @StranglersSite @KaiserChiefs favourites. Loved Peaches, good to get 1 of our 5 a day! htt\xe2\x80\xa6'
p218
aS'Baz in full flow at Belladrum (pic Corinne Laver) http://t.co/LbSa32cGeC'
p219
aS'Backstage at Belladrum (pic Merv) http://t.co/Vdv3XWL0pJ'
p220
aS'JJB with Simon from Kaiser Chiefs @curlywand at Belladrum (pic Merv) http://t.co/LrRV9oD1Su'
p221
asVRayLaMontagne
p222
(lp223
S'Congratulations @SawyerFrdrx! And thank you so much for singing \xe2\x80\x98Please\xe2\x80\x99 You killed it! I\xe2\x80\x99m proud of you man!'
p224
aS"Ray's @reverbdotcom shop now open, selling gear from his collection: http://t.co/X1kZ5eBzTN https://t.co/9YdzcnPvA3 http://t.co/arn0i4Ovqa"
p225
aS"Interview with Ray's wife, poet Sarah Sousa, on the Writer's Voice discussing her collection of poetry http://t.co/yvog2kgp9Z"
p226
aS"Flash sale! Some of the incredible posters from this year's shows are in Ray's store: http://t.co/k8yPfBiSTR http://t.co/XX7yiBx4Vf"
p227
aS'Thanks @jason_bentley &amp; @kcrw.\nhttp://t.co/VuSQJE12jy\n\n#Supernova http://t.co/Hb77qtCxKh'
p228
aS'RT @jason_bentley: My top 10 album picks for 2014 http://t.co/0bwNEdoGCs'
p229
aS'Supernova is included in @amazonmusic\xe2\x80\x99s Black Friday sale. Grab it at a special price here: http://t.co/mohVozIZfY http://t.co/iHmoI08q1d'
p230
aS'Act fast! #Supernova is included in @AmazonMusic\xe2\x80\x99s #LightningDeal. Get your copy while supplies last: http://t.co/zrGjR7qsYI'
p231
aS'Final show on the #supernovafall2014 tour. Thanks for an amazing run. http://t.co/HAnM9pAuS1'
p232
aS'Last night of the #supernovafall2014 tour! Sold out show at the @beacontheatre @ The Beacon Theatre http://t.co/Fy29re5GPI'
p233
aS"2 sold out nights at the Beacon in NYC down. Who's ready for round 3 tomorrow? We are!\xe2\x80\xa6 http://t.co/eTpXgrvWOU"
p234
aS"New York - we think you're pretty swell. Can't you tell? Ready for Night 2 at the Beacon tomorrow?\xe2\x80\xa6 http://t.co/q63s3cPsjn"
p235
aS"RT @BeaconTheatre: Who's here jamming out to @RayLaMontagne with us?! #SupernovaFall2014 http://t.co/O2mcRU2JT3"
p236
aS"NYC - Here is poster 3/3 for Ray's Friday show at the @BeaconTheatre, designed by @james_r_eads! #SupernovaFall2014 http://t.co/IeV4Kfuc4v"
p237
aS"NYC- Here's the next @BeaconTheatre poster by @james_r_eads! Grab 2/3 on Thurs! #SupernovaFall2014 http://t.co/aWMngkQEws"
p238
aS'NYC-Get ready for 3 great nights at @BeaconTheatre! Poster series by @james_r_eads  get 1/3 Weds! #SupernovaFall2014 http://t.co/dLwObArEYX'
p239
aS'New York City, the wait has been killing us. See you on Wednesday. And Thursday. And Friday.\xe2\x80\xa6 http://t.co/T5Gd2n5rCR'
p240
aS'Thank you, Syracuse! See you tomorrow, Albany. #SupernovaFall2014 @ Landmark Theatre http://t.co/c8WcccvVQB'
p241
aS"HERSHEY: Check out the exclusive poster by @zeb_love for Ray's show tonight at @HersheyTheatre. #SupernovaFall2014 http://t.co/vu8JYduyQ4"
p242
aS'Trouble, live from Virginia Beach. #SupernovaTour2014 @ Sandler Center for the Performing Arts http://t.co/qbMU7DsuFP'
p243
asVNewtonFaulkner
p244
(lp245
S'RT @powster: Our @lovieawards bronze for @NewtonFaulkner #StudioZoo finally arrived! Now we have the complete set! http://t.co/YxDOiIIN1U'
p246
aS'RT @SubmarinePickup: @NewtonFaulkner taking the pick up to new depths http://t.co/wmceYokhl6'
p247
aS'@Mari_5647 HAPPY BIRTHDAY!!!!! x'
p248
aS'@AkikoHattori Night :-)'
p249
aS'RT @SBTVonline: This A64 is 3 years old. Remember filming this with @NewtonFaulkner like it was yesterday! &gt; http://t.co/XUrlM048J3 http://\xe2\x80\xa6'
p250
aS'@LisaMilns Happy birthday!! :^ D x'
p251
aS'@TheDaveHarley Nope :-)'
p252
aS"I'm running 10k for @CoppaFeelPeople this morning, text HOOTERS to 70300 to donate \xc2\xa35 and help me feel less of a boob, thanks guys :-)"
p253
aS"I'm running 10k for @CoppaFeelPeople tomorrow morning, text HOOTERS to 70300 to donate \xc2\xa35 and help me feel less of a boob, thanks guys :-)"
p254
aS'@THTCCLOTHING Anytime dude :-)'
p255
aS"RT @THTCCLOTHING: Pls RT THTC's Fundraiser http://t.co/4xKBcaT9vn @lucysiegle @sinittaofficial @EthicalFashionC @EthicalFashionF Thanx! htt\xe2\x80\xa6"
p256
aS'RT @THTCCLOTHING: THTC Re:Grow event tickets are also available through @fatsoma now too http://t.co/2OkNdMAqsV #brixton #reggae #natty htt\xe2\x80\xa6'
p257
aS'@Mari_5647 always :-)'
p258
aS"Hey guys, remember this dude, from tour times? Sam Brookes' new video - Crazy World and You https://t.co/HYlTopsjs3 #CWandY via @Sam_Brookes"
p259
aS'@JackSherratt HAPPY BIRTHDAY DUDE!'
p260
aS'@georgia_smithh :-)'
p261
aS'@LisaMilns Oh alright then :-)'
p262
aS'@natstaw Happy Birthday :-) x'
p263
aS'RT @annahowiemusic: @OMGmusicnews @NewtonFaulkner @VictoriaBandUK please retweet these local families are so close to turning this around h\xe2\x80\xa6'
p264
aS'@C_McGinnes Hey! I remember you :-) Loving your look x'
p265
asVQueenWillRock
p266
(lp267
S'The Official @QueenWillRock Podcast: Episode 16 - Rosie Horide Interview (Part 2) now on You Tube @ https://t.co/MgoJaaVIKp'
p268
aS'Last chance! Win tix to see @DrBrianMay &amp; Denis Pellerin present 3-D Rarities &amp; One Night In Hell:See image to enter http://t.co/vY98lKHzIB'
p269
aS"Queen: Studio Collection - Exclusive 'The Game' Image. Pre-order your copy at http://t.co/cBr8KnkEUL #queenonvinyl http://t.co/5AEjkH4XxD"
p270
aS'Queen Studio Collection Film: Teaser 5 - http://t.co/M4LuNkje5j\nPre-Order Now at http://t.co/cBr8KnkEUL #queenonvinyl'
p271
aS'RT @QueenExtrava: ANATO UK Tour: Tix for Portsmouth, Guildford, Cambridge &amp; Cardiff are becoming limited! Snap them up NOW or miss out! htt\xe2\x80\xa6'
p272
aS'The Official @QueenWillRock Podcast: Episode 16 - Rosie Horide Interview (Part 2) Download or stream now @ https://t.co/iSaSQ3OYxn'
p273
aS'Win 2 tickets to see @DrBrianMay &amp; Denis Pellerin present 3-D Rarities &amp; One Night In Hell - see image for details! http://t.co/awAe4h8dXV'
p274
aS'.@The_MPT Auction Live At The Rainbow Super Deluxe Boxset signed by John Deacon, @OfficialRMT &amp; @DrBrianMay. Bid @ http://t.co/Qp43H2EpKa'
p275
aS'Studio Collection: Hardback Book unboxing https://t.co/Pxc6oPWt1Y Order now @ http://t.co/cBr8KnkEUL #queenonvinyl'
p276
aS'RT @brianmaycom: .@RaiTre Tonight 21.15 #Rai3 latest instalment @ParalleloItalia @DrBrianMay special guest along with @kerryjaneellis1 http\xe2\x80\xa6'
p277
aS'RT @universalmusicC: Our pals @MusicVaultz just launched a @QueenWillRock trivia contest! Play and win! http://t.co/ADCHjxwnyU http://t.co/\xe2\x80\xa6'
p278
aS"Studio Collection: 'The Game' Band Gallery @ https://t.co/tSSlDrCfW8 Order now @ http://t.co/cBr8KnkEUL #queenonvinyl http://t.co/F1OOmAsjbO"
p279
aS'.@DrBrianMay &amp; @kerryjaneellis1 to guest on Raitre TV Parallelo Italia on Sept 1st @ 21.15. Italian Tour Feb 2016 - http://t.co/sMmrKd9Goi'
p280
aS'.@OfficialRMT on \'Jazz\' - \xe2\x80\x9cBicycle Race was one of Freddie\xe2\x80\x99s mad ideas...and we had Fat Bottomed Girls, we felt they went together well."'
p281
aS'Queen Studio Collection Film - Teaser 4: https://t.co/Fj8cRzfkTd @shaunwkeaveny @matteveritt #queenonvinyl Order @ http://t.co/cBr8KnkEUL'
p282
aS"Studio Collection - Exclusive 'Jazz' Image. Pre-order your copy at http://t.co/cBr8KnkEUL #queenonvinyl http://t.co/SdHuo2JJO6"
p283
aS'Queen Studio Collection Film - Teaser 3: https://t.co/fSI6sivU7x Order now @ http://t.co/cBr8KnkEUL #queenonvinyl'
p284
aS'RT @QueenExtrava: QUEX Unplugged Part 2. Tyler &amp; Marc perform Crazy Little Thing Called Love acoustically for Radio Bylgjan in Iceland http\xe2\x80\xa6'
p285
aS'Studio Collection: "Jazz" Band Gallery @ https://t.co/CgkqGdrO48 Order now @ http://t.co/cBr8KnkEUL #queenonvinyl http://t.co/SxrjvDDNaR'
p286
aS'@The_MPT Auction:Live At The Rainbow boxset signed by @OfficialRMT, @DrBrianMay &amp; John Deacon! http://t.co/S2hyqxWa0A http://t.co/ldvDXaxcr5'
p287
asVamoslee
p288
(lp289
S'MERCH SALE: All items that were sold on the road this summer are now avail in our official webstore. For more info: http://t.co/8vaJoBwwFD'
p290
aS"RT @HollywoodBowl: The show must go on-tonight's concert is rain or shine! Please remember that umbrellas are not permitted, so pick up a p\xe2\x80\xa6"
p291
aS'We want to thank each and every fan from the bottom of our hearts for all their incredible support.\xe2\x80\xa6 https://t.co/2wRTR2XQpY'
p292
aS'To celebrate tonights show at the @HollywoodBowl @DKNGstudios created this gorgeous poster. http://t.co/pAl8F3jPro http://t.co/hDVPnhkJmO'
p293
aS"Portland OR we're comin for you! Poster art for tonights SOLD OUT show at Edgefield by @epicproblems. See y'all soon! http://t.co/9KDHSdpzFL"
p294
aS'Thank you @MarymoorConcert and all the fans who made last night so special! (Photo: @brianstowell) http://t.co/d3uJw4X0kA'
p295
aS'Redmond WA! Gig poster for tonights show at @MarymoorConcert by @BarryTheArtGuy)\xe2\x80\x8b. Tix avail: http://t.co/lOIwbzESmO http://t.co/Rl82LRxNK0'
p296
aS'We had a blast last night Saratoga CA! Want to do it again tonight? @thebandjoseph 630p, @amoslee\xe2\x80\xa6 https://t.co/vY4T74Y6id'
p297
aS'RT @sbBowl: @amoslee quits job as a touring artist and joins #SBBowl Usher Crew! Full story here! http://t.co/Yr3TZJmbcG'
p298
aS"In case you haven't heard yet our new album \xe2\x80\x9cLive At Red Rocks\xe2\x80\x9d is avail now from @amazonmusic http://t.co/LviDNbNOrv http://t.co/4dNHjFtYpH"
p299
aS'RT @CO_Symphony: #EnterToWin new album by @amoslee feat. @CO_Symphony TODAY ONLY #CSOSummer #RedRocks https://t.co/zJSdQ8bPgb'
p300
aS"LA! We\xe2\x80\x99ll be at the @HollywoodBowl w/ @DavidGray and the @LAPhil July 17 &amp; 18. Can't wait to see you all next week! http://t.co/Yt5UJ9yq5X"
p301
aS'Santa Barbara, CA! Jump on and snag a poster at tonights @sbBowl show! Art by @Subject_Matter. http://t.co/as9YhcGbZ3 http://t.co/uuDiMtbRaP'
p302
aS"We're excited to play Humphreys Concerts by the bay tonight! Event poster by @blacktshirt. See you later San Diego! http://t.co/gOtkZ2sQDP"
p303
aS'Our new album \xe2\x80\x9cLive At Red Rocks\xe2\x80\x9d is available now from @AppleMusic http://t.co/1JxdVgGJ1h http://t.co/wRf1qG02O3'
p304
aS'Gig poster for tonights show at Whitewater Amp in New Braunfels TX is by Justin Santora. http://t.co/SU2dqcm056 http://t.co/4i1Y4yCv48'
p305
aS"Event poster for tonight's show at @VerizonTheatre in Grand Prairie\xe2\x80\x8b, TX is by @teaganwhite. http://t.co/IcTGVkfDve http://t.co/CkXNow2sWt"
p306
aS"RT @VerizonTheatre: Y'ALL! We have a pair of STELLAR tix for the @amoslee &amp; @Davidgray show tomorrow night. RT for a chance to win 'em! htt\xe2\x80\xa6"
p307
aS'RT @TheAVClub: Stream the new track from Sons Of Anarchy\xe2\x80\x99s Bob Thiele, featuring Amos Lee http://t.co/mwUF8u6jlC http://t.co/XnsIk1fxqw'
p308
aS'Thank you Red Rocks! #amoslee #davidgray @ Red Rocks Park and Amphitheatre https://t.co/asHUAWVasb'
p309
asVDavidBowieReal
p310
(lp311
S'THREE WEEKS TILL FIVE YEARS\n\n\xe2\x80\x9cFive Years, what a surprise...\xe2\x80\x9d\n\nDavid Bowie (Five Years 1969 \xe2\x80\x93 1973) box set,... http://t.co/8tJNfjWWhd'
p312
aS'FIVE YEARS BOX  - ALBUM 6: ZIGGY MOTION PICTURE\n\n\xe2\x80\x9cNot only is it the last show of the tour...\xe2\x80\x9d\n\nLast week we had... http://t.co/SkTZ3yDcQB'
p313
aS"HAPPY BIRTHDAY TM2\n\n\xe2\x80\x9cI'm a man with a beat in my pocket... \xe2\x80\x9c\n\nReleased on September 2 1991 in the UK and Europe... http://t.co/3ViW9M3zua"
p314
aS"LET'S DANCE: BOWIE DOWN UNDER FILM AT BFI\n\n\xe2\x80\x9cScreening along in South London...\xe2\x80\x9c\n\nDetails of the 59th 2015 BFI... http://t.co/S6WJhhLkEi"
p315
aS'BOWIE TRIBUTE SHOW AT HARD ROCK SYDNEY\n\n\xe2\x80\x9cYou will be like your dreams tonight...\xe2\x80\x9d\n\nIf you\xe2\x80\x99re down under on... http://t.co/hxyezs6JmX'
p316
aS'LIMITED GRONINGER VINYL QUANTITIES REVEALED\n\n\xe2\x80\x9cDrink to the health of the store at Groninger...\xe2\x80\x9d\n\nTickets for the... http://t.co/mdiDsgUklv'
p317
aS'EIGHT-PAGE COVER FEATURE IN DUTCH LFL MAG\n\n\xe2\x80\x9cI got a lust for life, Oh a lust for life\xe2\x80\x9d\n\nDavid Bowie graces the... http://t.co/gOu6HHQ0q3'
p318
aS"TWO-NIGHTER CANADIAN BOWIE TRIBUTE\n\n\xe2\x80\x9cOne more, weekend, of lights and evening faces...\xe2\x80\x9d\n\nThere's a clue in the... http://t.co/6qts7R7Iwt"
p319
aS'FIVE YEARS BOX  - ALBUM 6: ZIGGY MOTION PICTURE\n\n\xe2\x80\x9cFor in front of that door, there is...Me!, Me!, Me!...\xe2\x80\x9d\n\nLike... http://t.co/3PRCjLvbmF'
p320
aS'CLASSIC ROCK GERMANY 8-PAGE COVER FEATURE\n\n\xe2\x80\x9cIch, Ich bin dann K\xc3\xb6nig...\xe2\x80\x9d\n\nClassic Rock Deutschland has published... http://t.co/Ib351XpFz5'
p321
aS"FRIDAY MUSIC BOWIE VINYL RELEASE SCHEDULE\n\n\xe2\x80\x9cYou've gotta have a plan, In the world of today...\xe2\x80\x9d\n\nBack in May we... http://t.co/uAUIVqeeJM"
p322
aS'FRIDAY MUSIC TO ISSUE EARTHLING FOR BLACK FRIDAY\n\n\xe2\x80\x9cI\xe2\x80\x99ve got Friday on my mind...\xe2\x80\x9d\n\nFriday Music will release... http://t.co/wkOJAtsqzH'
p323
aS'UNCUT AWARDS FIVE YEARS BOX 9/10\n\n\xe2\x80\x9cThen we were Ziggy\xe2\x80\x99s band...\xe2\x80\x9d\n\nAnother big thumbs up for the David Bowie (Five... http://t.co/kNihaHfd6Q'
p324
aS'FOUR STARS FOR FIVE YEARS BOX IN MOJO\n\n\xe2\x80\x9cMOJO the lion, yeah yeah...\xe2\x80\x9d\n\nJim Irvin reviews the David Bowie (Five... http://t.co/KtFhzDNV6T'
p325
aS"FIVE YEARS GETS FIVE STARS IN Q MAGAZINE\n\n\xe2\x80\x9cWe've got five stars, what a surprise...\xe2\x80\x9d\n\nIn the latest issue of Q... http://t.co/OjYYElE8C6"
p326
aS"YOU\xe2\x80\x99VE GOT A HABIT OF LEAVING 50 TODAY\n\n\xe2\x80\x9cSometimes I'm so glad, so glad...\xe2\x80\x9d\n\nReleased this day (August 20th) in... http://t.co/C0OfNUTzUm"
p327
aS'FIVE YEARS BOX  - ALBUM 5: SANTA MONICA\n\n\xe2\x80\x9cAnd he was alright, the band was altogether...\xe2\x80\x9d\n\nFollowing on from last... http://t.co/pHWSmX6qay'
p328
aS'GOLDEN YEARS 40TH ANNIVERSARY DISC DUE NOVEMBER\n\n\xe2\x80\x9cNothing\xe2\x80\x99s gonna touch you in these golden years...\xe2\x80\x9d\n\nGolden... http://t.co/83KKpzp71E'
p329
aS'SPACE ODDITY IS NEXT 40TH ANNIVERSARY PICTURE DISC\n\n\xe2\x80\x9cCommencing countdown, engines on...\xe2\x80\x9d\n\nNo prizes for guessing... http://t.co/ZK5zh7Cw7b'
p330
aS'TWO BOWIE VINYL EXCLUSIVES FOR GRONINGER\n\n\xe2\x80\x9cThere\xe2\x80\x99s a sailor who sings...\xe2\x80\x9d\n\nA limited edition pressing of David... http://t.co/Ks6rp7EAR3'
p331
asVDavidGray
p332
(lp333
S'RT @TheGarden: See how @DavidGray prepares in the moments before his show at @RadioCity on #BeforeTheShow  https://t.co/T0DTcAaddQ http://t\xe2\x80\xa6'
p334
aS'David performed an exclusive concert and interview @SXMCoffeeHouse. Listen this Thurs at 7pET http://t.co/8Z7goCHQgn http://t.co/r6JhwSLWXV'
p335
aS'Me Robbie and Keith doing a daft Hollywood Bowl selfie innit http://t.co/kaZ9TeHx6P'
p336
aS'Tickets for the shows w/ @amoslee\xe2\x80\x8b at The @HollywoodBowl \xe2\x80\x8b w/ the @LAPhil are on sale from: http://t.co/bqSaTzQ6m1 http://t.co/hS7tWIzVFi'
p337
aS"Tonight's gig - the @HollywoodBowl! http://t.co/hQTDpnsq9a"
p338
aS'The road to Troutdale....^hq http://t.co/YSAswLnuXy'
p339
aS"RT @TrilliumFamily: Thanks to @DavidGray for helping us #FightStigma at today's #KeepOregonWell show at the @KinkRadio @SkypeLiveStudio! ht\xe2\x80\xa6"
p340
aS'Add SkypeLiveStudio on Skype &amp; join a group chat with David on 7/14 at 12pm PDT #CloserWithSkype #contest (http://t.co/KR0KzusMoW)'
p341
aS'Enter to win tickets to see David live in LA with @AmosLee through this @TheArtistsDen contest: http://t.co/TFqIBA4y79'
p342
aS'Here is a new \'promo style\' solo recording of "Snow in Vegas". Performing it like this strips away all the clutter... http://t.co/fd4p874wsn'
p343
aS"Last night's set. Thanks for a great show Philly. Band in flying form, voice almost back to full beam. http://t.co/FU0ojQh8Ev"
p344
aS"RT @wxpnfm: Today's #FreeAtNoon guest is @DavidGray! You can listen live at http://t.co/cq4er12Gcf"
p345
aS"Tonight's print for the show in Philly at the @MannCenter is by @CatharsisMKE. Last tix here: http://t.co/uYLxOFbWFI http://t.co/wIVUM06Q7q"
p346
aS'David will be performing at @wxpnfm #freeatnoon concert series tomorrow at noon EST. Tune in or listen live online at http://t.co/w5tZKWYBn5'
p347
aS'RT @RadioCity: An incredibly special moment here at Radio City to have @DavidGray &amp; @leannrimes sing "Snow In Vegas" together! http://t.co/\xe2\x80\xa6'
p348
aS'There are limited tickets left for tonight at @RadioCity: http://t.co/FUMk75UQeK Show print by @ArsenalHcraft http://t.co/MLDRD8y7x0'
p349
aS"Beautiful day in Manhattan. Excited for tonight's show at @RadioCity, and for another chance to sing with LeAnn. http://t.co/so1u1IHIUg"
p350
aS'Thanks to a beautiful Portland crowd last night. Great first gig. Multiple birthday serenades much appreciated. X http://t.co/ixNbmySeY2'
p351
aS'Hair freshly trimmed, suitcase packed, airport bound. http://t.co/vLENtdzVfF'
p352
aS'RT @axs: INTERVIEW: @DavidGray talks about his musical roots, White Ladder, and love of nature &amp; music. http://t.co/J5Iq5g1uTc http://t.co/\xe2\x80\xa6'
p353
asVjoshuaradin
p354
(lp355
S"RT @rachaelyamagata: Singapore! See my pal @joshuaradin at the Esplanade this Sept 4th!  He's a beautiful artist and will melt your heart! \xe2\x80\xa6"
p356
aS"RT @SpotifySG: #DidYouKnow @joshuaradin only learnt to play guitar 2 years before writing his hit 'Winter' http://t.co/AJBNHuiSAa http://t.\xe2\x80\xa6"
p357
aS"RT @chaneuimm: No better #TGIF than one with @joshuaradin &amp; @bwalters - @timothygo_only1 we're all set for a #beautifulday #FLA #SG http://\xe2\x80\xa6"
p358
aS'My view from the hotel room in Singapore. Show tonight at Esplanade Concert Hall. Any requests? http://t.co/VQS1Usw8bb'
p359
aS"RT @British_Airways: @joshuaradin Anytime Joshua! We're sure our customers will love it as much as we do! ^Kelly"
p360
aS'RT @Happy_kiddo: @joshuaradin You\'ll find yourself in the "BA In Conversation With" on there too, recorded back at Union Chapel last summer\xe2\x80\xa6'
p361
aS'Thanks to British Airways for featuring my album on their flights @British_Airways http://t.co/vL15KSI4fg'
p362
aS'RT @lufthansa: @joshuaradin Thank you for the music! :-) \xe2\x99\xab \xe2\x99\xaa /Ina'
p363
aS'Thanks @Lufthansa for playing my album http://t.co/8BJmXpyBEc'
p364
aS'RT @mtgh: .@joshuaradin performs his 1st show in Singapore on 4 Sep, tickets at SISTIC! http://t.co/xX6dXTMfpd @Greenhorngigs http://t.co/C\xe2\x80\xa6'
p365
aS'http://t.co/cjVjEsqnBP'
p366
aS"Listen to my new cover of #CyndiLauper's #TrueColors that I recorded for @amazonmusic's #AmazonAcoustics playlist at http://t.co/IrKvgZPbT8"
p367
aS'If you could repost this in Australia it sure would be helpful and make me come back more often... \xf0\x9f\x87\xa6\xf0\x9f\x87\xba\xf0\x9f\x91\x8d http://t.co/EhD3C7DRhA'
p368
aS'#brandnewday https://t.co/y4i7UcEdwc'
p369
aS'Forgot to post this one a couple mornings ago. Stockholm #Gr\xc3\xb6na Lund https://t.co/DgJTqW5s7R'
p370
aS'Bro Hof. https://t.co/P3hcXZZlMJ'
p371
aS'The clubhouse at Bro Hof was not pretty at all. https://t.co/Gy8wQwjDQJ'
p372
aS'Having a dog on the course brought good luck. And her name is "Lucky" to boot. https://t.co/0H1jfkFN29'
p373
aS"I'm so in love with the look of rural Sweden. I may have to paint my house red. https://t.co/Q6U0gCMxpV"
p374
aS"Not a bad way to spend a Sunday - Sweden's number one course. https://t.co/5FqvEkA66n"
p375
asVKTTunstall
p376
(lp377
S'Forever \xe2\x9d\xa4\xef\xb8\x8f https://t.co/Q1WC6ZtULn'
p378
aS'Oooeee LA! That was hot fun \xf0\x9f\x91\x8a\xf0\x9f\x8f\xbc\xf0\x9f\x94\xa5! Thanks for the pic @jus10h xx @theTroubadour http://t.co/MG9Sob47BH'
p379
aS"RT @Teitur: Tonight I'll join wonderful @KTTunstall in Troubadour in LA as secret guest! Show is sold out, but I'll send you pictures! Wish\xe2\x80\xa6"
p380
aS"Excited for those of you coming to @theTroubadour 2nite to catch @Teitur - he's a magical being!! \xe2\x9a\xa1\xef\xb8\x8f https://t.co/r0gxSela8S"
p381
aS'RT @theTroubadour: A few tickets just released for @KTTunstall tonight! Grab them quick! https://t.co/l7EcRYqYSb'
p382
aS'Emma Thompson. QUEEN. \xe2\x9d\xa4\xef\xb8\x8f\xf0\x9f\x8c\x8e @GreenpeaceUK #SaveTheArctic  https://t.co/jM6ryOdnqP'
p383
aS"@NathanRSLong hey - follow me and I'll message you"
p384
aS'@StephhhGuerra BOSS FAMILY \xf0\x9f\x91\x8a\xf0\x9f\x8f\xbc'
p385
aS"That's because your Mom is a BOSS \xf0\x9f\x91\x8a\xf0\x9f\x8f\xbc https://t.co/oySOfbSmu4"
p386
aS'\xf0\x9f\x98\x82\xf0\x9f\x98\x82\xf0\x9f\x98\x82\xf0\x9f\x91\x8d\xf0\x9f\x8f\xbc https://t.co/NPdn8weLT4'
p387
aS"NAPA!! That was a *ridiculously* fun show. And on a MONDAY. Let's do it again tomorrow. \xf0\x9f\x91\x8a\xf0\x9f\x8f\xbc\xf0\x9f\x92\x8b #lovehowyouroll @CityWineryNapa"
p388
aS'\xf0\x9f\x91\x8b\xf0\x9f\x8f\xbc\xf0\x9f\x8d\x95 http://t.co/sg7FAUwWy2'
p389
aS'RT @SciencePorn: Monday. September tomorrow. Winter is coming http://t.co/kIefCiaOgK'
p390
aS'RT @greenpeaceusa: Please, @POTUS. The Arctic is one of the most ecologically vital places on Earth. http://t.co/IlSfsCTLnU #GLACIER http:/\xe2\x80\xa6'
p391
aS"@StateDept Dear Power, pleeease let's not f*ck up the Arctic? @greenpeaceusa #GLACIER https://t.co/FSaWt33wrM"
p392
aS'@LeonHodge yassss!'
p393
aS'\xf0\x9f\x92\xa5\xf0\x9f\x92\xaa\xf0\x9f\x8f\xbc oh yeah @LeonHodge !! https://t.co/pMR4lvVzTU'
p394
aS"RT @theTroubadour: We just opened some tickets for our @KTTunstall show next week! Grab them before they're gone again! http://t.co/QiB36BP\xe2\x80\xa6"
p395
aS'Chaos is to be alive @RobynHitchcock !! Lovely having you join x https://t.co/7w83GBQ4MH'
p396
aS'Thanks for 2 amazing nights in Nashville... \xe2\x9d\xa4x\xe2\x9d\xa4\xef\xb8\x8f (Pic by @nattylady \xf0\x9f\x91\x8d\xf0\x9f\x8f\xbc!) @citywinerynsh https://t.co/CVpiavPJYd'
p397
asVOfficialAdele
p398
(lp399
S'My favourites The Maccabees have their new album out. Please get it and love it as much as I do. Marks To Prove It! http://t.co/CTu7lOjvLt'
p400
aS'@BetteMidler I love that you posted the pic of me holding it together. When this is really what happened... X http://t.co/aZ7O5cydrR'
p401
aS'My bestest friend has her 4th Darcy Burdock book out NOW! Oh Obviously!! Get it here - http://t.co/PR6biyHW66'
p402
aS'So...tonight was THE best night of my life. I love you Stevie Nicks!! The queen of melodies! Thanks for everything x http://t.co/OKukHIpiV4'
p403
aS'Thank you for the birthday wishes I had a wonderful time! I was my hero x #gottahavefaith http://t.co/FMSPQPUGMD'
p404
aS"It's World Water Day! For every RT this gets, @LifeWaterUK will give 100 gallons of clean water to someone in need. #cleanwaterforall xx"
p405
aS"#ThanksZane for being such a fan of music. I'm so glad and proud you are a part of my career. You made so many of us real x"
p406
aS'This is fantastic, click away https://t.co/DhX8RPVNhu'
p407
aS"Just wanted to wish everyone happy holidays &amp; all the best for 2015! PS Simon &amp; I are still very much together, don't believe what you readx"
p408
aS'Just watched Nightcrawler after months of being excited and it WAS AMAZZZING! Go and see it!'
p409
aS'My good friend Example has a new album out and you can get it here x\nhttp://t.co/pPNXIoCVBS'
p410
aS"@OfficialAdele: I pretend I'm Drop Dead Fred every day. Thank you for all the laughter Rik Mayall x"
p411
aS'Katy Perry was supreme tonight! But UK mamas look who I saw tonight! http://t.co/iccKIi88et'
p412
aS'Oh @palomafaith! Your so perfect I love you and this so much http://t.co/8Dhaz5g8Q6'
p413
aS'Bye bye 25... See you again later in the year x http://t.co/HEmY14El5s'
p414
aS"I've designed a bag with @Fendi to raise money for the @KidsCompanyUK ! Check it out here- http://t.co/2EVaxfZjyj  #FendiPeekaboo"
p415
aS'Happy Mothers Day Mamas x'
p416
aS'Everyone tweet a picture of yourself with water! Drinking, showering, cooking, cleaning... #iLoveWater'
p417
aS"#iLoveWater and so does #drop4drop get involved at http://t.co/Pv6ZTuwOdD it's world water day! http://t.co/nXJvjJsALV"
p418
aS"Fuck!!! This is one of the best things I've ever seen in my life hands down http://t.co/D47sRGtni1"
p419
asVLA_Sparks
p420
(lp421
S"THAT'S TWO IN A ROW! LA beats @WashMystics 93-91! Parker gets her 12th double-double: 26 pts, 11 rebs. Ogwumike gets 24 pts in her return!"
p422
aS'RT @eddiegomezmusic: Big thank you 2the .@LA_Sparks  4 allowing me 2 participate in multiple events this year. U continue 2 raise the bar 4\xe2\x80\xa6'
p423
aS'1:30 left on the clock, LA and still leads 87-78! #LetsGoSparks #WeAreLA'
p424
aS'5 minutes left, and the Sparks are up 80-74! Parker and Ogwumike both lead with 21 pts! #LetsGoSparks #WeAreLA'
p425
aS"Did someone order a double-double? Because @Candace_Parker just got her 10th rebound! That's her 12th double-double of the season!"
p426
aS'CP3 GIVES LA THE LEAD! Timeout with 6:55 left. LA up 76-74!!!! #LetsGoSparks #WeAreLA'
p427
aS"IT'S ALL TIED UP! Lavender throws down two clutch free throws to make it all square at 74! 7:14 left in the game! #LetsGoSparks #WeAreLA"
p428
aS'Western Conference Player of the Month @Candace_Parker is at it again! This time with a basket to close out the 3rd, pushes LA to 66-70!'
p429
aS'Western Conference Player of the Month @Candace_Parker is in the hunt for her 12th double-double tonight! Already has 15 pts, 7 rebs, 4 asts'
p430
aS'RT @madsen_mark: @LA_Sparks good luck in second half! Awesome game at @STAPLESCenter'
p431
aS'First timeout of the third, and LA is only down 55-62. Ogwumike still leads both teams with 16 pts.'
p432
aS"It's raining threes! Dabovic and Parker drain back-to-back shots from downtown!! LA within 6! WHOOP WHOOOOOOOP!!!  #LetsGoSparks #WeAreLA"
p433
aS"Congrats @Nnemkadi30, honored 2nite  w/her commemorative ring celebrating USA's FIBA World Championships Gold Medal! http://t.co/q5CLLRwPxl"
p434
aS'HALFTIME: Sparks cut the deficit to 43-53. Ogwumike leads both teams with 12 pts. Parker right behind with 10 pts, 4 rebs, 3 asts.'
p435
aS'And just like that, the Sparks are on a 8-0 run with 45 sec left in the half! LA only trail 41-48. #LetsGoSparks #WeAreLA'
p436
aS'PUMP FAKE PARKER!!! Her floater puts her to 10 pts. LA down 37-48 #LetsGoSparks #WeAreLA'
p437
aS'Dabovic drives it down the lane for 2! Sparks still trails 29-38 with 5:09 left in the half. #LetsGoSparks #WeAreLA'
p438
aS'LA down 21-33 at the first timeout of the second. Sparks with 7 different scorers. WHOOP WHOOP!!!!! #LetsGoSparks #WeAreLA'
p439
aS'End of 1st: Sparks down 18-24. Parker and Ogwumike both have 4 points. Beard and Johnson with 3 each.'
p440
aS'Alana with the treyyyyyyyy!!! 13-18, @WashMystics #LetsGoSparks #WeAreLA'
p441
asVBillyIdol
p442
(lp443
S"RT @DuffMcKagan: I'm wishing @JonesysJukebox a very Happy Birfday! Jonesy, I followed u around after I got off the sauce..because u know ho\xe2\x80\xa6"
p444
aS'Here is part of the result of the work I did with Christopher Guest last year.. https://t.co/R7hREgIZjI'
p445
aS'RT @BillyMorrison: Rolling into @KABCRadio right now to chat with "The Drive Home" team - going live in about 15 mins.'
p446
aS'Final day of recording for audio book version of auto bio DWM\xe2\x80\xa6..'
p447
aS'New Shit From The Lip up on http://t.co/ptwfRFdBU4 http://t.co/UeYwiqJU00'
p448
aS"@GeelovesBFIdol Happy 46th b'day Glenda!"
p449
aS'\xe2\x80\x9c@love_radio_: We love @BillyIdol #NowPlaying "Save Me Now" #ListenLive : http://t.co/0pUBp4jltM enjoy\xe2\x80\x9d\nCheers @love_radio_...BFI'
p450
aS'Rock on Phyllis Ann! https://t.co/dE0D61bpf8'
p451
aS"RT @Isabelle0990: @BillyIdol https://t.co/fsyWaenC1C 'TBF' ... do you remember this? Long ago in Germany... weekly show called MUSIC CONVOY"
p452
aS'RT @erikeldenius: After kicking and screaming....Im here!!!'
p453
aS'Audio book final recordings will take place now on September 1st.'
p454
aS'Majority of audio book recording done\xe2\x80\xa6a break of a week while it is put together, on the 31st will record epilogue &amp; any finishing touches.'
p455
aS'RT @BillyMorrison: Keep your eyes here and on @MSOPR tomorrow morning - all album release details including info on a special track will be\xe2\x80\xa6'
p456
aS'RT @Bethenny: When i had to admit that @airsupplymusic was one of my 1st concerts I felt like a real #bitchass. Thankfully @BillyIdol was 2\xe2\x80\xa6'
p457
aS'@47f83cc597a0453 yes I read the sex encounter on the plane piece today which was sexy /fun to read out loud!'
p458
aS"Day 3 DWM audio book recording: I've done about 66% of the book so far; Day 4 today."
p459
aS'Happy Birthday to @Bonniebluebroad Xxx'
p460
aS'Thanks 4 opinions on changing LA Women title to city I\xe2\x80\x99m in yea or nay?: Its divided so I will use my own discretion on the night as usual.'
p461
aS'I love the DWM book poster with a red London double decker speeding by &amp; Big Ben... https://t.co/GsfdezHvA2'
p462
aS'Crikey!!! https://t.co/PhyPIOWaEb'
p463
asVPaoloNutini
p464
(lp465
S'Warming up in the dressing pre gig. Bellahouston Park, Glasgow. Sat 29 Aug 2015. photo credit http://t.co/x2FSqPfZI4 http://t.co/TmlzQxR5l9'
p466
aS"The view from Paolo's mic. Show time. Bellahouston Park. Saturday 29 August 2015 #strawberrysongstour http://t.co/li9XQ3ux0s"
p467
aS'Thanks Glasgow. You were amazing ... photo http://t.co/3iHyB83I6a http://t.co/HlLJyZ2LG4'
p468
aS"The view from Paolo's mic. Earlier this evening. See you tomorrow Bellahouston Park ... #strawberrysongstour http://t.co/rDa5VAFKdP"
p469
aS'The countdown to Bellahouston Park continues ... In Holland tonight for Lowlands Festival @Rapid_Razor_Bob http://t.co/8AYMlWYdEm'
p470
aS"The countdown to Bellahouston is on...we're in rehearsals. For ticket info -http://t.co/ENjZQG3etm http://t.co/iJ2CZYP1Q9"
p471
aS'Check out Paolo on this weeks cover of The Scottish Big Issue. Pick up a copy today. @BigIssueScots http://t.co/M3LBYCnqbs'
p472
aS'Q magazine have a set of exclusive Paolo photos taken by @andrewwhitton \xe2\x80\xa6. http://t.co/IdSDTuuKXD'
p473
aS'RT @QuincyDJones: So good to see my Scottish brother @PaoloNutini backstage at the @MontreuxJazz. Steer clear of the haggis bro! http://t.c\xe2\x80\xa6'
p474
aS'Our view backstage. Right now. Collisioni Festival, Piazza Colbert, Barolo, Italy #strawberrysongstour2015 http://t.co/vQLir2BgGG'
p475
aS'Piazza Castello, Ferrara ....\n#strawberrysongstour2015 http://t.co/ZfX6ThtHOG'
p476
aS"More info &amp; limited number of tickets for Paolo's Bellahouston Park show available at: http://t.co/jQAaoB85tE"
p477
aS'.@Miss_GraceJones, @viewofficial, @Soakofficial &amp; @ReallyTuffLove will join Paolo at Bellahouston Park on 29th Aug... http://t.co/JMBfAnyNMR'
p478
aS'Musilac Festival, Aix Les Bains, France .... Courtesy of @Tills99 \n#strawberrysongstour2015 http://t.co/GbtQVR8rhS'
p479
aS'On the tour bus last night/this morning from @northseajazz to Aix Les Bains, France ... With @bradwebbmusic @Tills99 http://t.co/CuSDmjgzLX'
p480
aS'The tour bus last night as it rolled out of @northseajazz . A 940km journey ahead of us ... #strawberrysongstour2015 http://t.co/i33b9qUPPm'
p481
aS'Backstage. Montreux Jazz Festival. Thurs 9th July 2015\n\nphoto by http://t.co/vRil1mGbNz for @Lematinch @MontreuxJazz http://t.co/s7HQagU0Hx'
p482
aS'It was @MontreuxJazz this evening. Thanks Montreux &amp; we miss you Claude ....\n#strawberrysongstour2015 http://t.co/Hg0Zs62FA7'
p483
aS"Paolo's dressing room. Backstage @LuccaSummerFest ... http://t.co/Z3r7Tp0TvL"
p484
aS'Thanks to @Kodaline for the keg of  @GuinnessIreland we found in our dressing room after the gig last night ... http://t.co/V3K7J9fnLO'
p485
asVTheKinks
p486
(lp487
S'Cast your vote - http://t.co/MbQStehrGJ'
p488
aS"Ray Davies will be headlining the Victorious Festival this weekend in Portsmouth. It's a great line up with Super... http://t.co/LGPC2vMU5I"
p489
aS'ONE month to go until the cast of Sunny Afternoon bring some of our classics to the stage at OnBlackheath Festival! http://t.co/38nP5RKsrJ'
p490
aS'Updated tour schedule! New dates added- Springfield, MA, NYC and Sacramento, Ca!\n\nOct 2nd, 2015- The Court of... http://t.co/y3CytsiKW4'
p491
aS'Dave didn\xe2\x80\x99t just play it on guitar: He made it growl, running it through a wall of distortion that startled... http://t.co/asreBwd9uG'
p492
aS"Ray Davies' show at the Brecon Jazz Festival is now sold out! http://t.co/OF1ZH5tBlc"
p493
aS'New interview with Dave Davies about his upcoming show in London and the Kinks http://t.co/UU0UJ89zbw'
p494
aS'Ray Davies and his band will be performing July 24th at the Greenwich Music Time Festival in London. Playing... http://t.co/yaIxvj1TOd'
p495
aS"Dave Davies will play London's Islington Assembly Hall on Friday December 18th. Tickets on sale from Monday July... http://t.co/kv7sV6JSnm"
p496
aS'http://t.co/NLzCzvkPo8'
p497
aS'A Sad day for us all. Aunt Doll 102 passed away this morning- she was truly a remarkable lady she was a wonderful... http://t.co/DJaKLAN9nM'
p498
aS'Have you been to see Sunny Afternoon: The Kinks Musical? \n\nBe sure to leave a TripAdvisor review for fellow fans! http://t.co/e4b8C5YjIb'
p499
aS'Pete Quaife passed away five years ago today, June 23rd, 2010. He is sorely missed. RIP Pete.'
p500
aS'Happy Birthday to Ray Davies today, you can wish him the same over on his FB page! http://t.co/DZk1kBjssX'
p501
aS"Ray Davies' only London show of 2015 is on July 24th with his band at the Greenwich Music Time Festival. His... http://t.co/RaMi1f6cJM"
p502
aS'US Fans, two albums at a special price on @AppleMusic! \nLola Versus Powerman and the Money-Go-Round, Pt. 1 and... http://t.co/nu6JutEqDX'
p503
aS'US fans only!  Head to Amazon now for a special limited time only deal on The Anthology 1964 \xe2\x80\x93 1971: http://t.co/xqOkVfyfac'
p504
aS"Tonight Ray Davies will be awarded 'London Legend' at the London Music Awards and the cast of Sunny Afternoon... http://t.co/NjCHa1BjEY"
p505
aS'The cast of Sunny Afternoon will be performing all of your favourite Kinks classics LIVE at OnBlackheath... http://t.co/vQ6YOIk2AV'
p506
aS'Black Vinyl Reissue of the 1964 debut album from The Kinks\nNow available for pre-order at Amazon in the US.... http://t.co/LdV5wtVGO2'
p507
asVJohnMayer
p508
(lp509
S'It\xe2\x80\x99s Key and Peele night tonight. \xe2\x80\x9cBagels are for sales associates only\xe2\x80\x9d is the sleeper hit sketch of the year.'
p510
aS'Headlining a #tech conference in October - come see me in #Austin: http://t.co/sftyJ2UsXj  #DellWorld'
p511
aS'Nothing is as gently thrilling as the realization there is a new Key and Peele to watch when I get into bed tonight.'
p512
aS'Do you think if you lifted your dog up and showed them what the kitchen counter looked like, they would hear the Jurassic Park theme?'
p513
aS'Okay fine, maybe not. (Okay fine, totally not.) But still looks like pic was taken with electron microscope.  https://t.co/YLt4ZkaqpY'
p514
aS'Uh, it\xe2\x80\x99s a photo negative. Mystery solved.  https://t.co/RuTuLQiRZp'
p515
aS"LIVE on #Periscope: Fillin' It https://t.co/bwXD9b1DiO"
p516
aS"New tour dates announced... This is getting exciting. (And I'm told it's not over yet...) deadandcompany's photo https://t.co/FsuXJtpr0w"
p517
aS'@Sterloid I was thinking just yesterday about how easy it must be to counterfeit stamps. Must be thousands of $ a year lost to it, no?'
p518
aS'Now the right shoe\xe2\x80\x99s tighter.'
p519
aS'Well let\xe2\x80\x99s sew this up: there\xe2\x80\x99s nobody closer to the nexus of stellar celebrity success and normality than Mark Harmon. #findyourMark'
p520
aS'$700k an episode! *Ultimate* gangsta behavior. https://t.co/on4YwERjJV'
p521
aS'86 was not an easy year to win that. Think about it.  https://t.co/ClqGw0fo31'
p522
aS'RT @rickyvanveen: @JohnMayer Part owner of minor league baseball team in San Bernardino, The San Bernardino Spirit, which spawned Ken Griff\xe2\x80\xa6'
p523
aS'You\xe2\x80\x99re living in perfect Harmon-y. Kudos to you.  https://t.co/pXI4JILG7i'
p524
aS'I\xe2\x80\x99m not surprised. Please share your #harmonfact with Ricky and I, or elect someone with a better life. I dare you.  https://t.co/SIInhxwy96'
p525
aS'#Harmonfact Harmon has been on TMZ a total of zero times, making his reported net worth of $13mil a sweet life without a cautionary tale.'
p526
aS'.@rickyvanveen thanks Ricky for the #HarmonFact. Also saved two boys\xe2\x80\x99 lives in 1996 pulling them from burning car https://t.co/XVfOmN6zGQ'
p527
aS'Most people with Mark Harmon\xe2\x80\x99s wealth and success in the industry suffer the trade-off of curse-for-blessing. But Harmon flies below radar'
p528
aS'Roundly excoriating anybody who has tried to offer a better example of a celeb life you\xe2\x80\x99d rather have than Harmon\xe2\x80\x99s.'
p529
asVElvisCostello
p530
(lp531
S'Lost On The River: @newbsmnttapes -  "Married To My Hack" - http://t.co/DTtwdofpw2'
p532
aS'@WPR .@ElvisCostello Uses Hits, Deep Cuts To Signal Artistic Vitality at the Overture Center for the Arts - http://t.co/VcgpkHwAjF'
p533
aS'I have that effect on people. Looking forward. http://t.co/66jp7A3S1V'
p534
aS'@darlenelovesing @springsteen &amp; @ElvisCostello Go Cruising in Darlene Love\'s New Video " Forbidden Nights" -  https://t.co/qCwa18OiSL'
p535
aS'The .@ElvisCostello Song Of The Week Is Now Just A Memory @Trunkworthy in Music - http://t.co/bLgwVAHcx7'
p536
aS'Elvis Costello &amp; Tony Bennett - "Are You Havin\' Any Fun?" - http://t.co/yzMJuMxbKn'
p537
aS'The New Basement Tapes \xe2\x80\x9cDown On The Bottom\xe2\x80\x9d from the band\xe2\x80\x99s one-and-only performance at the Ricardo Montalban Theatre\nhttp://t.co/BBsIgh2aZM'
p538
aS'.@ElvisCostello Song of the Week: An Artist at War With His Former Self @Trunkworthy in Music  http://t.co/p8bs9nXSHK http://t.co/8gdwGAukqt'
p539
aS'@NewTimesBroward Steely Dan, .@ElvisCostello Close Out Tour at Perfect Vodka, a double-headliner treat for music fans http://t.co/YJsD1AdxpG'
p540
aS'8/12 Do Not Miss ElvisCostello &amp; The Imposters special guests of Steely Dan at Cruzan Amphitheatre West Palm Beach FL http://t.co/dHiUu8fIZl'
p541
aS'I Want to vanish Elvis Costello - Festival des Jazz Saint-Rapha\xc3\xabl juillet 2015 - https://t.co/RpDXs11Hb3'
p542
aS'Check this out if you can. Congrats my old pal http://t.co/nGfJSQ8055'
p543
aS'08/06.@ElvisCostello &amp; The Imposters special guests of Steely Dan at the Walnut Creek Amphitheatre, Raleigh, NC  http://t.co/B2Wf8LVQMj'
p544
aS'@Telegraph The Desert Island Discs 20 great guests you can enjoy on the @BBC website including .@ElvisCostello (1992) http://t.co/ofRbea6yi9'
p545
aS'08/05.@ElvisCostello &amp; The Imposters special guests of Steely Dan at the Jiffy Lube Live, Bristow, VA  http://t.co/MfZukgxBR7'
p546
aS'http://t.co/Saou4zhn7z - Elvis Costello and Steely Dan make great sense together at the Susq - http://t.co/PMnqWANWyo http://t.co/T6RlV1WUsV'
p547
aS'@bostonsportsdsk "Got Any Wensleydale?".@ElvisCostello &amp; Steely Dan showed their fans the brilliance of ageing cheese http://t.co/v5kIvOIEHZ'
p548
aS'@bostonherald Steely Dan &amp; Elvis Costello at the Pavilion. Peace Love &amp; Understanding ended the set on a rocking note http://t.co/Ilb7ronzMB'
p549
aS'@KarenOberlin Congrats. Fine work explaining my shabby songs to poor Stephen. Do you think he knows any Davis Sisters hits? Yeah, that one.'
p550
aS'07/30 &amp; 07/31.@ElvisCostello &amp; The Imposters special guests of Steely Dan at the Blue Hills Bank Pavilion, Boston MA -http://t.co/qaPuRAkRY4'
p551
asVjason_mraz
p552
(lp553
S'RT @MrazTeam: Includes a YES! tote bag &amp; card signed by @jason_mraz. Net proceeds benefit @MrazFoundation. http://t.co/s7fs0wHDn0 http://t.\xe2\x80\xa6'
p554
aS'How rad is this? We up-cycled our remaining #jasonandjane tour tees into a super soft blanket http://t.co/s5I55VwFia http://t.co/ZjUiGxO2xK'
p555
aS'my rock. http://t.co/Boq93kkmgW'
p556
aS'#gingercatappreciationday http://t.co/531rFq6Zmi'
p557
aS'#backtoschool http://t.co/AKTXJVPDtf'
p558
aS'My friends at #CommonVision are planting 1,000 orchards at low-income schools! Please support their work: http://t.co/UktR4uJXzU'
p559
aS'Another super fun show from @FeedingTheSoulF today. Doors at 4PM. Music 5PM to 8PM. Benefitting @OutdoorOutreach \xf0\x9f\x92\x9c http://t.co/uCm7X9N8Nh'
p560
aS'I love view. http://t.co/chMIRZZXG8'
p561
aS'RT @ClimateReality: On #WorldPhotographyDay: A beautiful reminder that we need to protect the only planet we have. Retweet if you agree. ht\xe2\x80\xa6'
p562
aS'Call/email your CA legislators today. Ask them to commit healthy soil. http://t.co/LAdWuNPHCQ #SoilStory'
p563
aS'Yoga is all about being in the moment. Unless I have to fart, then I wait until a later moment.'
p564
aS'...and then SIGN MY PETITION to tell CA to include compost programs in their climate budget! http://t.co/JOWvooZvdR @kissthegroundCA'
p565
aS"My friend Billy aka @Bushwalla made an explicit video about compost. Get the dirt &amp; educate yo'self: https://t.co/SOkrXxpQGY"
p566
aS'UNITY. Not the same. But Equal. http://t.co/NJLqkLMIpR'
p567
aS'Best Plant Based Menu. 101 S San Francisco St, Flagstaff AZ. Go Whyld! @WHyldass http://t.co/18omypPWv7'
p568
aS'Raw Food For Thought http://t.co/m0c4d9P24z'
p569
aS'#Caturday night hangover. http://t.co/6G4qfl7XAN'
p570
aS'In the news! http://t.co/K63ZNcRRdF'
p571
aS'Our Soil Petition to re-build CA soil, just made the front page of http://t.co/8lLENT1d7q\nHelp us keep up the momentum @algore :)'
p572
aS'u r what u eat. http://t.co/FK214Tlmgi'
p573
asVDamienRice
p574
(lp575
S'Damien plays Clockenflap festival Hong Kong which runs November 27-29th 2015\nWeb: http://t.co/MYrijpeI5v onsale Tuesday 8th September'
p576
aS'Damien plays 2 shows in South Korea Nov 22nd Seoul:Grand Peace Palace &amp;  24th Bexo Auditorium Busan. Onsale Tues 8th http://t.co/ZMsE8kuZtr'
p577
aS'Damien will play Neon Lights Festival, Singapore which happens on 28th and 29th November. http://t.co/oUDfJ3s78n onsale Tues 8th September'
p578
aS'Last one for a while -jt http://t.co/JTFkVekyd1'
p579
aS'Streaming live on Yahoo now -jt http://t.co/XUa6ngAkKx'
p580
aS'Limited Edition poster avail tonight @SSBallroom, tomorrow @bassconcerthall &amp; Friday @reventioncenter. @CatharsisMKE http://t.co/aSrXyWt8OK'
p581
aS"@YahooLive is streaming Damien's concert tonight from @SSBallroom in Dallas, TX at 10:00 PM ET. http://t.co/K9DrMEgHfV"
p582
aS'Iron &amp; Wine -jt http://t.co/IOeycdGhP2'
p583
aS"Limited Edition poster available at tonight's show at @RedRocksOnline. Created by @CatharsisMKE http://t.co/dN8OIRTOsw"
p584
aS'Damien announces South American tour to include Brazil, Colombia, Chile, Argentina and Peru. Full info &amp; tickets at http://t.co/ZMsE8kuZtr'
p585
aS'Berlin. Tempodrom. Mariam the Believer. -jt http://t.co/qQTztu5Fzc'
p586
aS'Copenhagen soundcheck -jt http://t.co/KWcI7s1Wos'
p587
aS'The @GibransProphet soundtrack is out now ft two songs by Damien: \xe2\x80\x9cOn Children\xe2\x80\x9d &amp; the original composition \xe2\x80\x9cHypnosis\xe2\x80\x9d http://t.co/KVGi1pBDYA'
p588
aS'After Verona -jt http://t.co/FSRs8XgnNw'
p589
aS'Castello Scaligero gate -jt http://t.co/XLmx6eqXvf'
p590
aS'The @GibransProphet soundtrack, out 7/31, features two songs by Damien including the original composition \xe2\x80\x9cHypnosis\xe2\x80\x9d https://t.co/Sxx16utkAF'
p591
aS'Taormina -jt http://t.co/fWJSEfSkrl'
p592
aS"We're coming to South America in October - more news next week. http://t.co/24t5v3iDQP"
p593
aS'Roma -jt http://t.co/qPyxBzsAOc'
p594
aS'Soundcheck Luzern -jt http://t.co/B9CgDOL23N'
p595
asVJamesBlunt
p596
(lp597
S'Bugger off, Ian. RT @chalonerian62: @JamesBlunt evening James any chance of a hello many thanks'
p598
aS'Kept you in a job. https://t.co/3yOkbbYfZr'
p599
aS'I have a very small sausage. http://t.co/VylQLrxbM1'
p600
aS"Can\xe2\x80\x99t stand your face but thanks for the compliment RT @BWillett87: @JamesBlunt can't stand your music but your comebacks are second to none"
p601
aS'Coming out is hard. RT @megyn_wbu: Why is my brother listening to James Blunt'
p602
aS'Infectious too! Like herpes. RT @chillyeol: James Blunt is so irritating'
p603
aS'On this week, 10 years ago, your music taste sucked ass. http://t.co/eQ6clu6F2h'
p604
aS"This is a lyric referring to premature ejaculation. RT @Hoss0fficial: Cause I saw the end before we'd begun."
p605
aS'I was followed home last night by a man in a black Golf. He sped off when confronted. Paparazzi or thief? http://t.co/hKuNccHHqi'
p606
aS"RT @Independent: You won't believe who was special guest on Top Gear's highest rating episode http://t.co/wSXBKanF5E http://t.co/mmqkfLBTHg"
p607
aS'No, he\xe2\x80\x99s the guy who sang that annoying \xe2\x80\x9cParadise\xe2\x80\x9d song. https://t.co/dmnOSpj1VL'
p608
aS'Amazed and thrilled to get the call from @GlastoFest to headline in place of @foofighters. Of course I said yes! #rockon'
p609
aS'I\xe2\x80\x99d fuck me.'
p610
aS'To be honest, I don\xe2\x80\x99t even really like music.'
p611
aS'@edsheeran Or we could skip the foreplay altogether.'
p612
aS'Good news for the UK: I\xe2\x80\x99m being deported to Australia. Bad news for Australia: I\xe2\x80\x99m your new X Factor judge. @thexfactor_au'
p613
aS'Embarrassing that you A. read the Daily Mail and B. believe what you read in the Daily Mail. https://t.co/Qr3FqknNqv'
p614
aS'Yeah, I bought those 20 million albums myself. RT @TroyJosephDavis: no one really likes James Blunt right?'
p615
aS'That\xe2\x80\x99s not actually me, that\xe2\x80\x99s her. RT @ajantajudd: James Blunt is still moaning....'
p616
aS'It\xe2\x80\x99s actually a much better picture if someone else takes it for you. #GoFuckYourSelfie'
p617
asVgeorge_ezra
p618
(lp619
S'Very happy to have spent the day in Germany \xf0\x9f\x87\xa9\xf0\x9f\x87\xaa'
p620
aS'@weareshura thank you for this'
p621
aS'FF Bada makes me want to see Battles live even more'
p622
aS'@EthanBarnett1 hahaha have a a amazing time boys!! X'
p623
aS'RT @deezeruk: Jump aboard for a whistle stop tour of @george_ezra\xe2\x80\x99s favourite travelling tunes \xf0\x9f\x9a\x82\xe2\x9c\x88\xef\xb8\x8f\xf0\x9f\x9a\xb2\xe2\x9b\xb5\xef\xb8\x8f http://t.co/X5285waT5V http://t.co/KL\xe2\x80\xa6'
p624
aS'Those were the days  https://t.co/YjvY18wgqH'
p625
aS'#geoff http://t.co/qxe7oWt5eR'
p626
aS'@AndyMilonakis all good mate, can we smash plates some time?'
p627
aS"@Hozier your live lounge is pulling so many happy memories forward in my mind, I hope you're all well man x"
p628
aS'I want to be in Cornwall'
p629
aS'http://t.co/3XiEDiAIzo'
p630
aS"Just got back from South Africa, a beautiful experience. Some of my favourite shows of the year. I can't wait to come back one day \xf0\x9f\x92\xaa\xf0\x9f\x8f\xbc"
p631
aS'I want to be in @Beatenberg_Band \xf0\x9f\x99\x8b\xf0\x9f\x8f\xbc'
p632
aS"RT @Xfm: After recent singles Barcelona and Budapest, @XFM can exclusively reveal the tracklisting for @George_Ezra's next LP! http://t.co/\xe2\x80\xa6"
p633
aS'RT @5FM: Congratulations, @Sibu_MpanzaSA! Your #GeorgeEzra5 picture caption has won you that EXCLUSIVE @george_ezra Vinyl :D'
p634
aS"RT @BBCR1: Next week's playlist has landed! Now with added @CHVRCHES, @foofighters, @GabrielleAplin, @LanaDelRey &amp; @justinbieber http://t.c\xe2\x80\xa6"
p635
aS'@farahmenswear \xf0\x9f\x91\x8a\xf0\x9f\x8f\xbc'
p636
aS'@CHIVmusic this has Aled written all over it \xf0\x9f\x99\x88'
p637
aS'Carnauba'
p638
aS"RT @noah_villeneuve: I'm off to South Africa tomorrow with @george_ezra for 3 headline shows, it'll be real special! I'll\xe2\x80\xa6 https://t.co/1hP\xe2\x80\xa6"
p639
asVkeaneofficial
p640
(lp641
S'Listen out for a piece about our sorely missed drum tech, Scott Johnson, on Guy Garvey\xe2\x80\x99s Finest Hour on 6music this Sunday, 2-4pm. Richard'
p642
aS"Congrats to Janet F from Kent who's won our pair of tickets to see Tim and @TomChaplin play their one-off @BattleFestival show on Sat. km"
p643
aS'As patron of Battle Festival, Tim is playing an acoustic gig with Tom in Battle this Saturday. Win two tickets\xe2\x80\xa6 https://t.co/Oft4oOwrMf km'
p644
aS"If you're off to #Glastonbury, they're showing Keane: Live From Berlin at @PiltonPalais cinema tent at 4pm on Wed. km http://t.co/1gi3MDJqQa"
p645
aS'RT @Keaneland2015: Registration for our #Keane weekend is now open! Read our blog: http://t.co/Qs9z2ru768 + register for the event here: ht\xe2\x80\xa6'
p646
aS'RT @Richard_H: @CWBafrica are recruiting Autumn 2015 &amp; Spring 2016 cricket coaching &amp; HIV/AIDS awareness volunteers http://t.co/E6oedTIDSk'
p647
aS'RT @tomchaplin: Amazon just recommended me "It\'s Easy To Play Keane Hopes &amp; Fears". So many questions.'
p648
aS"Look out for @tomchaplin on BBC2's Tim Rice: A Life In Song on Christmas Day at 9pm. http://t.co/HySId1XGCB km"
p649
aS'Get up to 60% off in the Keane Shop Black Friday sale, at http://t.co/jKwX2Q3JYY km http://t.co/7BWKiRdLZt'
p650
aS"There's an encore screening of The Best of Keane: Live from Berlin in Eindhoven next week http://t.co/zq8tzlTbPX. km http://t.co/NEp75VteKm"
p651
aS'RT @BexhillObs: #Bexhill News: Meeting Tim Rice-Oxley at Battle: A young musician has spoken of her amazing experience being m... http://t.\xe2\x80\xa6'
p652
aS'Look out for Tim being interviewed about @BattleFestival on @BBCSouthEast at 6.30pm on BBC1 this evening in the South East. km'
p653
aS'RT @Richard_H: If new album \xe2\x80\x9cFall Together Again\xe2\x80\x9d by @andywburrows is half as good as \xe2\x80\x9cCompany\xe2\x80\x9d then it\xe2\x80\x99s well worth your time. #downloadin\xe2\x80\xa6'
p654
aS'RT @Richard_H: MORE NEW STUFF! Dear friend of keane @lloydswilliams of @TheColdStart sent me the link to their new vid: https://t.co/p4D4AJ\xe2\x80\xa6'
p655
aS'RT @Richard_H: Keane early-adopter @MCGlentworth has been raving about @HighHazels for yonks - great new song "The Promenade\xe2\x80\x9d here: http://\xe2\x80\xa6'
p656
aS'Pleased to announce a screening of The Best of Keane: Live from Berlin on 2nd Dec at Genesis Cinema, London E1 - http://t.co/6sHbAum1aA km'
p657
aS'Tim will be mentoring 8 young musicians during the Battle Arts &amp; Music festival in Oct. Info on how to apply at http://t.co/kxnDuH5pxI km'
p658
aS"RT @Richard_H: Home after riding my bike from Land's End to John O'Groats. Probably the hardest &amp; best thing I've ever done. http://t.co/C3\xe2\x80\xa6"
p659
aS'Tim has been revealed as the new patron of the @BattleFestival. Full info at http://t.co/6mpR3EhJhz km'
p660
aS"Video Memories are back! Read Tim's thoughts on the Everybody's Changing video (http://t.co/8365zE2fdF), at http://t.co/kbkmzGycHH now. km"
p661
asVIggyPop
p662
(lp663
S'\xe2\x99\xab This Weekend: Milton Keynes, United Kingdom - Sep 5 at National Bowl http://t.co/1JXs8Sccrx'
p664
aS'\xe2\x99\xab This Weekend: Milton Keynes, United Kingdom - Sep 6 at National Bowl http://t.co/xc0XjWAsAC'
p665
aS'Chairman. Chairman of the bored.  https://t.co/yf7M8jq59v'
p666
aS'\xe2\x99\xab Just Announced: Sao Paulo, Brazil - Oct 16 at Popload Festival http://t.co/IKl7bC2ZCB'
p667
aS'\xe2\x99\xab Just Announced: Basel, Switzerland - Oct 24 at Baloise Session http://t.co/xf4Eiux16y'
p668
aS'\xe2\x99\xab Today: Denver, CO - Aug 28 at Denver Riot Fest http://t.co/hPzIODznoG'
p669
aS'\xe2\x99\xab This Weekend: Denver, CO - Aug 28 at Denver Riot Fest http://t.co/TtZofKtDia'
p670
aS'In case you need your music fix and you missed #iggyconfidential last Friday. \nhttp://t.co/7JD32a1lhA'
p671
aS"\xe2\x99\xab Today: Colmar, France - Aug 13 at Foire aux Vins d'Alsace Officiel http://t.co/DjBlhcfuWl"
p672
aS"\xe2\x99\xab Tomorrow: Colmar, France - Aug 13 at Foire aux Vins d'Alsace Officiel http://t.co/fnFEcjUaJG"
p673
aS'\xe2\x99\xab Today: Montreal, Canada - Aug 8 at Heavy Montreal 2015 http://t.co/cn94nsDk42'
p674
aS"RT @BBC6Music: Ready to rock? @IggyPop's got some heavy hitters from his record collection. Listen here - http://t.co/SdIOjouxAF http://t.c\xe2\x80\xa6"
p675
aS'\xe2\x99\xab This Weekend: Montreal, Canada - Aug 8 at Heavy Montreal 2015 http://t.co/LS79NoylVy'
p676
aS'RT @BBC6Music: Start your weekend the right way, catch @IggyPop tomorrow at 7pm. Underwear is mentioned... http://t.co/SdIOjoM8sd http://t.\xe2\x80\xa6'
p677
aS'Another announcement for @gutterdammerung... Who else are we going the see in this LOUDEST SILENT movie? #iggypop\nhttp://t.co/j5SAJG6ZMo'
p678
aS'Have we tuned in yet to listen to #iggyconfidential on @BBC6Music If not, you are missing some fine tunes!'
p679
aS"RT @BBC6Music: Don't forget to catch @IggyPop tomorrow from 7pm as he kicks off your weekend in style... http://t.co/OqPeviiVSs http://t.co\xe2\x80\xa6"
p680
aS'RT @BBC6Music: Fancy a groove? Join @IggyPop as he plays some funky tunes to kick start your weekend - http://t.co/jz7Klq5kYK http://t.co/r\xe2\x80\xa6'
p681
aS'\xe2\x99\xab Just Announced: Chicago, IL - Sep 12 at Riot Fest Chicago http://t.co/hupQ46I2Bs'
p682
aS'\xe2\x99\xab Today: Wiesen, Austria - Jul 19 at Wiesen Festival http://t.co/Hc0EEC7UeW'
p683
asVjamiecullum
p684
(lp685
S'Signed. Petition: Accept more asylum seekers and increase support for refugee migrants in the UK. https://t.co/zdVHN3ZzvJ'
p686
aS'RT @savechildrenuk: No more bodies on the beach. RT to show you believe it\xe2\x80\x99s time to make #RefugeesWelcome. http://t.co/gVUAOwW11Q http://t\xe2\x80\xa6'
p687
aS'@Kyraofficial boom!!'
p688
aS'Inside the beautiful @the88journal limited edition box set - all one-offs - notebooks, pencils,\xe2\x80\xa6 https://t.co/93J4htlQeG'
p689
aS"RT @luckynak79: @the88journal I can't remember the last time receiving package made me this excited\xe2\x80\xbc\xef\xb8\x8e #AllTheWayToJapan @jamiecullum http:/\xe2\x80\xa6"
p690
aS"RT @SevCoudurier: Yes !!! she arrived @jamiecullum @the88journal I'm so excited.. http://t.co/jqS4Z8pFYl"
p691
aS"RT @caorite: I'm now like a little girl who just opened a box of chocolate :) @the88journal @jamiecullum https://t.co/R9xePmbk89"
p692
aS'@PennCP @sbstryker wow wow wow! So cool!'
p693
aS"RT @PennCP: @sbstryker Check out our #acappella MUSIC VIDEO of @jamiecullum When I Get Famous! We'd love to hear what you think! http://t.c\xe2\x80\xa6"
p694
aS'I met @kyanmusic 5 years ago. He was a talent then &amp; is an even bigger one now. Get on it early. Thank me later. http://t.co/kv0IVzhGOM'
p695
aS"Them's the breaks. https://t.co/B5qH13RxMg"
p696
aS'Coming soon.....The Song Society No. 3. Look out for it next week! https://t.co/ifR19qYQMD'
p697
aS'RT @rte2xm: Join the unmistakable @JamieCullum from 2pm as he showcases his love for jazz with lives sessions and special guests: http://t.\xe2\x80\xa6'
p698
aS"RT @foldedwinguk: Great news Irish jazzers - @jamiecullum's @BBCRadio2 show will go out on @rte2xm weekly, starting tomorrow at 2pm - http:\xe2\x80\xa6"
p699
aS'@MsBrittPortlock @jamiewoon listening to @jamiewoon'
p700
aS"If you're @edfringe go and see the @hackneycolliery playing @FollowTheCow tonight until Wednesday! Tell them I said hi!"
p701
aS'RT @the88journal: Just finished packing 500 boxes of the #limitededition88. They are amazing!  Order yours at http://t.co/YuanzE5vgO http:/\xe2\x80\xa6'
p702
aS'An amazing birthday night @TheJazzCafe dancing to @pbwolf and the legend @BreakBeatLou'
p703
aS'Thanks for all my birthday wishes everyone - enjoying the day massively as you can see! Jx https://t.co/c27Oyah5vi'
p704
aS"Thanks for all my b'day wishes everyone! My cup overfloweth.....36!!  Jx"
p705
asVBenHarper
p706
(lp707
S'Lyon, France - Summer 2015. And the pillows kept on coming...  https://t.co/wcW506QX7v'
p708
aS"We're getting close! Catch our set @ @KAABOODELMAR on 9/20 at 6:25pm. Passes still available https://t.co/5bbCy5bJad http://t.co/47DsrLa7Fe"
p709
aS'Thank you San Francisco and @sfoutsidelands! Photo credit: @Adam_Keely. http://t.co/CfQosKUCOK'
p710
aS'@gilllandry has been confirmed to open for BHIC tomorrow night in Vienna, VA at @wolf_trap at 7:30pm. Tix on sale at http://t.co/SnrV5PVKIM.'
p711
aS"This is where we'll be Aug 15. Make it a destination weekend with us in Tamarack, ID at @huckjamid! http://t.co/XzZCYqG0tA"
p712
aS'Ben Harper &amp; The Innocent Criminals take the stage at @eurockeennes in 10 min! Listen live at http://t.co/PcfV7TUXD1'
p713
aS"Audio Engineer's backpack stolen in Brussels - Reward Offered - http://t.co/j9iGEN3SgF"
p714
aS'The daily schedule is out! BHIC are playing at @KAABOO on Sun, September 20!  Single day passes are available here: http://t.co/y94wgHyocp'
p715
aS'"All Roads Led Back to the Innocent Criminals" by @SteveAppleford. http://t.co/M74cylTgzs via @rollingstone'
p716
aS'RT @Bandsintown: . @BenHarper performed at @ThePageantSTL in #stlouis with his amazing band. pix by @Abbers13 http://t.co/Mxds0f7VlO http:/\xe2\x80\xa6'
p717
aS'Ben Harper &amp; The Innocent Criminals headlining @huckjamid Aug 15 @ Tamarack Resort near Donnelly, ID. Tix on sale now http://t.co/dpegOjRQ4b'
p718
aS'BHIC live from @Bonnaroo webcast will start in a little over an hr @ 4:15am UTC (9:15pm PDT/12:15am EDT) at http://t.co/FKzRK1mk28. Tune in!'
p719
aS'Heads up Bonnaroovians! Ben Harper &amp; The Innocent Criminals are playing the Which Stage at @Bonnaroo tomorrow @ 9:15p http://t.co/fmISfjL9le'
p720
aS'Put your party hats on! @MariachiElBronx will be opening for BHIC at Red Rocks on Sep 15. Tix on sale now at  http://t.co/aZjodNaacM'
p721
aS'Solo acoustic shows in Brazil! @musselwhiteharp is also on the bill.  6/19 in S\xc3\xa3o Paulo &amp; 6/21 in Rio de Janeiro. Tix http://t.co/N2AuJ0526t'
p722
aS'JUST ANNOUNCED - Win tickets and festival passes to select shows on BHIC 2015 tour. Enter here ==&gt; http://t.co/0XJyLH2FQA'
p723
aS'BHIC at @Bumbershoot Sep 7! https://t.co/pS7JtRo5Yr'
p724
aS'In honor of Earth Day we are honored to support brother Joel Harper\'s new book "Sea Change."  Find out more at http://t.co/kKPj729Mze'
p725
aS'Looking forward to our show in Indy 6/13 where @SOJALive have been confirmed as the special guest opener. More at http://t.co/ags1qeimjl'
p726
aS'Ben Harper will return to @redbuttegarden with The Innocent Criminals 9/16 in SLC. Presale at http://t.co/OSZGFN9fTQ http://t.co/CSSI3a77nd'
p727
as.